; Listing generated by Microsoft (R) Optimizing Compiler Version 19.38.33133.0 

	TITLE	C:\STM32CubeIDE\Electrium\vroom_motorcycle\TouchGFX\build\Debug\obj\image_alternate_theme_images_widgets_togglebutton_medium_rounded_on_normal.obj
	.686P
	.XMM
	include listing.inc
	.model	flat

INCLUDELIB MSVCRTD
INCLUDELIB OLDNAMES

PUBLIC	?image_alternate_theme_images_widgets_togglebutton_medium_rounded_on_normal@@3QBEB ; image_alternate_theme_images_widgets_togglebutton_medium_rounded_on_normal
msvcjmc	SEGMENT
__BD62AED8_Config@hpp DB 01H
__71B1C580_image_alternate_theme_images_widgets_togglebutton_medium_rounded_on_normal@cpp DB 01H
msvcjmc	ENDS
CONST	SEGMENT
?image_alternate_theme_images_widgets_togglebutton_medium_rounded_on_normal@@3QBEB DB 00H ; image_alternate_theme_images_widgets_togglebutton_medium_rounded_on_normal
	DB	00H
	DB	00H
	DB	00H
	DB	00H
	DB	00H
	DB	00H
	DB	00H
	DB	00H
	DB	00H
	DB	00H
	DB	00H
	DB	00H
	DB	00H
	DB	00H
	DB	00H
	DB	00H
	DB	00H
	DB	00H
	DB	00H
	DB	00H
	DB	00H
	DB	00H
	DB	00H
	DB	00H
	DB	00H
	DB	00H
	DB	00H
	DB	070H
	DB	060H
	DB	040H
	DB	010H
	DB	070H
	DB	05cH
	DB	030H
	DB	082H
	DB	070H
	DB	060H
	DB	038H
	DB	0beH
	DB	078H
	DB	060H
	DB	030H
	DB	0dfH
	DB	070H
	DB	05cH
	DB	030H
	DB	0ffH
	DB	070H
	DB	05cH
	DB	038H
	DB	0ffH
	DB	078H
	DB	060H
	DB	030H
	DB	0ffH
	DB	070H
	DB	05cH
	DB	030H
	DB	0ffH
	DB	070H
	DB	05cH
	DB	038H
	DB	0ffH
	DB	078H
	DB	060H
	DB	030H
	DB	0ffH
	DB	070H
	DB	05cH
	DB	030H
	DB	0ffH
	DB	070H
	DB	05cH
	DB	038H
	DB	0ffH
	DB	078H
	DB	060H
	DB	030H
	DB	0ffH
	DB	070H
	DB	05cH
	DB	030H
	DB	0ffH
	DB	070H
	DB	05cH
	DB	038H
	DB	0ffH
	DB	078H
	DB	060H
	DB	030H
	DB	0ffH
	DB	070H
	DB	05cH
	DB	030H
	DB	0ffH
	DB	070H
	DB	05cH
	DB	038H
	DB	0ffH
	DB	078H
	DB	060H
	DB	030H
	DB	0ffH
	DB	070H
	DB	05cH
	DB	030H
	DB	0ffH
	DB	070H
	DB	05cH
	DB	038H
	DB	0ffH
	DB	078H
	DB	060H
	DB	030H
	DB	0ffH
	DB	070H
	DB	05cH
	DB	030H
	DB	0ffH
	DB	070H
	DB	05cH
	DB	038H
	DB	0ffH
	DB	078H
	DB	060H
	DB	030H
	DB	0ffH
	DB	070H
	DB	05cH
	DB	030H
	DB	0ffH
	DB	070H
	DB	05cH
	DB	038H
	DB	0ffH
	DB	078H
	DB	060H
	DB	030H
	DB	0ffH
	DB	070H
	DB	05cH
	DB	030H
	DB	0ffH
	DB	070H
	DB	05cH
	DB	038H
	DB	0ffH
	DB	078H
	DB	060H
	DB	030H
	DB	0ffH
	DB	070H
	DB	05cH
	DB	030H
	DB	0ffH
	DB	070H
	DB	05cH
	DB	038H
	DB	0ffH
	DB	078H
	DB	060H
	DB	030H
	DB	0ffH
	DB	070H
	DB	05cH
	DB	030H
	DB	0ffH
	DB	070H
	DB	05cH
	DB	038H
	DB	0ffH
	DB	078H
	DB	060H
	DB	030H
	DB	0ffH
	DB	070H
	DB	05cH
	DB	030H
	DB	0ffH
	DB	070H
	DB	05cH
	DB	038H
	DB	0ffH
	DB	078H
	DB	060H
	DB	030H
	DB	0ffH
	DB	070H
	DB	05cH
	DB	030H
	DB	0ffH
	DB	070H
	DB	05cH
	DB	038H
	DB	0ffH
	DB	078H
	DB	060H
	DB	030H
	DB	0ffH
	DB	070H
	DB	05cH
	DB	030H
	DB	0ffH
	DB	070H
	DB	05cH
	DB	038H
	DB	0ffH
	DB	078H
	DB	060H
	DB	030H
	DB	0ffH
	DB	070H
	DB	05cH
	DB	030H
	DB	0ffH
	DB	070H
	DB	05cH
	DB	038H
	DB	0ffH
	DB	078H
	DB	060H
	DB	030H
	DB	0ffH
	DB	070H
	DB	05cH
	DB	030H
	DB	0ffH
	DB	070H
	DB	05cH
	DB	038H
	DB	0ffH
	DB	078H
	DB	060H
	DB	030H
	DB	0ffH
	DB	070H
	DB	05cH
	DB	030H
	DB	0ffH
	DB	070H
	DB	05cH
	DB	038H
	DB	0ffH
	DB	078H
	DB	060H
	DB	030H
	DB	0ffH
	DB	070H
	DB	05cH
	DB	030H
	DB	0ffH
	DB	070H
	DB	05cH
	DB	038H
	DB	0ffH
	DB	078H
	DB	060H
	DB	030H
	DB	0ffH
	DB	070H
	DB	05cH
	DB	030H
	DB	0ffH
	DB	070H
	DB	05cH
	DB	038H
	DB	0ffH
	DB	078H
	DB	060H
	DB	030H
	DB	0ffH
	DB	070H
	DB	05cH
	DB	030H
	DB	0ffH
	DB	070H
	DB	05cH
	DB	038H
	DB	0ffH
	DB	078H
	DB	060H
	DB	030H
	DB	0ffH
	DB	070H
	DB	05cH
	DB	030H
	DB	0ffH
	DB	070H
	DB	05cH
	DB	038H
	DB	0ffH
	DB	078H
	DB	060H
	DB	030H
	DB	0ffH
	DB	070H
	DB	05cH
	DB	030H
	DB	0ffH
	DB	070H
	DB	05cH
	DB	038H
	DB	0ffH
	DB	078H
	DB	060H
	DB	030H
	DB	0ffH
	DB	070H
	DB	05cH
	DB	030H
	DB	0ffH
	DB	070H
	DB	05cH
	DB	038H
	DB	0ffH
	DB	078H
	DB	060H
	DB	030H
	DB	0ffH
	DB	070H
	DB	05cH
	DB	030H
	DB	0ffH
	DB	070H
	DB	05cH
	DB	038H
	DB	0ffH
	DB	078H
	DB	060H
	DB	030H
	DB	0ffH
	DB	070H
	DB	05cH
	DB	030H
	DB	0ffH
	DB	070H
	DB	05cH
	DB	038H
	DB	0ffH
	DB	078H
	DB	060H
	DB	030H
	DB	0ffH
	DB	070H
	DB	05cH
	DB	030H
	DB	0ffH
	DB	070H
	DB	05cH
	DB	038H
	DB	0ffH
	DB	078H
	DB	060H
	DB	030H
	DB	0ffH
	DB	070H
	DB	05cH
	DB	030H
	DB	0ffH
	DB	070H
	DB	05cH
	DB	038H
	DB	0ffH
	DB	078H
	DB	060H
	DB	030H
	DB	0ffH
	DB	070H
	DB	05cH
	DB	030H
	DB	0ffH
	DB	070H
	DB	05cH
	DB	038H
	DB	0ffH
	DB	078H
	DB	060H
	DB	030H
	DB	0ffH
	DB	070H
	DB	05cH
	DB	030H
	DB	0ffH
	DB	070H
	DB	05cH
	DB	038H
	DB	0ffH
	DB	078H
	DB	060H
	DB	030H
	DB	0ffH
	DB	070H
	DB	05cH
	DB	030H
	DB	0ffH
	DB	070H
	DB	05cH
	DB	038H
	DB	0efH
	DB	078H
	DB	060H
	DB	030H
	DB	0beH
	DB	078H
	DB	05cH
	DB	038H
	DB	06dH
	DB	078H
	DB	060H
	DB	038H
	DB	020H
	DB	00H
	DB	00H
	DB	00H
	DB	00H
	DB	00H
	DB	00H
	DB	00H
	DB	00H
	DB	00H
	DB	00H
	DB	00H
	DB	00H
	DB	00H
	DB	00H
	DB	00H
	DB	00H
	DB	00H
	DB	00H
	DB	00H
	DB	00H
	DB	00H
	DB	00H
	DB	00H
	DB	00H
	DB	00H
	DB	00H
	DB	00H
	DB	00H
	DB	00H
	DB	00H
	DB	00H
	DB	00H
	DB	00H
	DB	00H
	DB	00H
	DB	00H
	DB	00H
	DB	00H
	DB	00H
	DB	00H
	DB	00H
	DB	00H
	DB	00H
	DB	00H
	DB	00H
	DB	00H
	DB	00H
	DB	00H
	DB	078H
	DB	060H
	DB	038H
	DB	020H
	DB	070H
	DB	060H
	DB	030H
	DB	0beH
	DB	078H
	DB	05cH
	DB	038H
	DB	0ffH
	DB	078H
	DB	05cH
	DB	030H
	DB	0ffH
	DB	070H
	DB	060H
	DB	038H
	DB	0ffH
	DB	078H
	DB	05cH
	DB	038H
	DB	0ffH
	DB	078H
	DB	05cH
	DB	030H
	DB	0ffH
	DB	070H
	DB	060H
	DB	038H
	DB	0ffH
	DB	078H
	DB	060H
	DB	038H
	DB	0ffH
	DB	078H
	DB	05cH
	DB	030H
	DB	0ffH
	DB	070H
	DB	060H
	DB	038H
	DB	0ffH
	DB	078H
	DB	05cH
	DB	038H
	DB	0ffH
	DB	078H
	DB	060H
	DB	030H
	DB	0ffH
	DB	070H
	DB	05cH
	DB	038H
	DB	0ffH
	DB	078H
	DB	060H
	DB	038H
	DB	0ffH
	DB	078H
	DB	05cH
	DB	030H
	DB	0ffH
	DB	070H
	DB	060H
	DB	038H
	DB	0ffH
	DB	078H
	DB	060H
	DB	038H
	DB	0ffH
	DB	078H
	DB	05cH
	DB	030H
	DB	0ffH
	DB	070H
	DB	060H
	DB	038H
	DB	0ffH
	DB	078H
	DB	05cH
	DB	038H
	DB	0ffH
	DB	078H
	DB	060H
	DB	030H
	DB	0ffH
	DB	070H
	DB	05cH
	DB	038H
	DB	0ffH
	DB	078H
	DB	060H
	DB	038H
	DB	0ffH
	DB	078H
	DB	05cH
	DB	030H
	DB	0ffH
	DB	070H
	DB	060H
	DB	038H
	DB	0ffH
	DB	078H
	DB	060H
	DB	038H
	DB	0ffH
	DB	078H
	DB	05cH
	DB	030H
	DB	0ffH
	DB	070H
	DB	060H
	DB	038H
	DB	0ffH
	DB	078H
	DB	05cH
	DB	038H
	DB	0ffH
	DB	078H
	DB	060H
	DB	030H
	DB	0ffH
	DB	070H
	DB	05cH
	DB	038H
	DB	0ffH
	DB	078H
	DB	060H
	DB	038H
	DB	0ffH
	DB	078H
	DB	05cH
	DB	030H
	DB	0ffH
	DB	070H
	DB	060H
	DB	038H
	DB	0ffH
	DB	078H
	DB	060H
	DB	038H
	DB	0ffH
	DB	078H
	DB	05cH
	DB	030H
	DB	0ffH
	DB	070H
	DB	060H
	DB	038H
	DB	0ffH
	DB	078H
	DB	05cH
	DB	038H
	DB	0ffH
	DB	078H
	DB	060H
	DB	030H
	DB	0ffH
	DB	070H
	DB	05cH
	DB	038H
	DB	0ffH
	DB	078H
	DB	060H
	DB	038H
	DB	0ffH
	DB	078H
	DB	05cH
	DB	030H
	DB	0ffH
	DB	070H
	DB	060H
	DB	038H
	DB	0ffH
	DB	078H
	DB	060H
	DB	038H
	DB	0ffH
	DB	078H
	DB	05cH
	DB	030H
	DB	0ffH
	DB	070H
	DB	060H
	DB	038H
	DB	0ffH
	DB	078H
	DB	05cH
	DB	038H
	DB	0ffH
	DB	078H
	DB	060H
	DB	030H
	DB	0ffH
	DB	070H
	DB	05cH
	DB	038H
	DB	0ffH
	DB	078H
	DB	060H
	DB	038H
	DB	0ffH
	DB	078H
	DB	05cH
	DB	030H
	DB	0ffH
	DB	070H
	DB	060H
	DB	038H
	DB	0ffH
	DB	078H
	DB	060H
	DB	038H
	DB	0ffH
	DB	078H
	DB	05cH
	DB	030H
	DB	0ffH
	DB	070H
	DB	060H
	DB	038H
	DB	0ffH
	DB	078H
	DB	05cH
	DB	038H
	DB	0ffH
	DB	078H
	DB	060H
	DB	030H
	DB	0ffH
	DB	070H
	DB	05cH
	DB	038H
	DB	0ffH
	DB	078H
	DB	060H
	DB	038H
	DB	0ffH
	DB	078H
	DB	05cH
	DB	030H
	DB	0ffH
	DB	070H
	DB	060H
	DB	038H
	DB	0ffH
	DB	078H
	DB	060H
	DB	038H
	DB	0ffH
	DB	078H
	DB	05cH
	DB	030H
	DB	0ffH
	DB	070H
	DB	060H
	DB	038H
	DB	0ffH
	DB	078H
	DB	05cH
	DB	038H
	DB	0ffH
	DB	078H
	DB	060H
	DB	030H
	DB	0ffH
	DB	070H
	DB	05cH
	DB	038H
	DB	0ffH
	DB	078H
	DB	060H
	DB	038H
	DB	0ffH
	DB	078H
	DB	05cH
	DB	030H
	DB	0ffH
	DB	070H
	DB	060H
	DB	038H
	DB	0ffH
	DB	078H
	DB	060H
	DB	038H
	DB	0ffH
	DB	078H
	DB	05cH
	DB	030H
	DB	0ffH
	DB	070H
	DB	060H
	DB	038H
	DB	0ffH
	DB	078H
	DB	05cH
	DB	038H
	DB	0ffH
	DB	078H
	DB	060H
	DB	030H
	DB	0ffH
	DB	070H
	DB	05cH
	DB	038H
	DB	0ffH
	DB	078H
	DB	060H
	DB	038H
	DB	0ffH
	DB	078H
	DB	05cH
	DB	030H
	DB	0ffH
	DB	070H
	DB	060H
	DB	038H
	DB	0ffH
	DB	078H
	DB	060H
	DB	038H
	DB	0ffH
	DB	078H
	DB	05cH
	DB	030H
	DB	0ffH
	DB	070H
	DB	060H
	DB	038H
	DB	0ffH
	DB	078H
	DB	05cH
	DB	038H
	DB	0ffH
	DB	078H
	DB	060H
	DB	030H
	DB	0ffH
	DB	070H
	DB	05cH
	DB	038H
	DB	0ffH
	DB	078H
	DB	060H
	DB	038H
	DB	0ffH
	DB	078H
	DB	05cH
	DB	030H
	DB	0ffH
	DB	070H
	DB	060H
	DB	038H
	DB	0ffH
	DB	078H
	DB	060H
	DB	038H
	DB	0ffH
	DB	078H
	DB	05cH
	DB	030H
	DB	0ffH
	DB	070H
	DB	060H
	DB	038H
	DB	0ffH
	DB	078H
	DB	05cH
	DB	038H
	DB	0ffH
	DB	078H
	DB	060H
	DB	030H
	DB	0ffH
	DB	070H
	DB	060H
	DB	038H
	DB	0ffH
	DB	070H
	DB	05cH
	DB	030H
	DB	0ffH
	DB	070H
	DB	060H
	DB	030H
	DB	0ffH
	DB	070H
	DB	05cH
	DB	038H
	DB	0ffH
	DB	078H
	DB	060H
	DB	038H
	DB	09eH
	DB	078H
	DB	060H
	DB	038H
	DB	020H
	DB	00H
	DB	00H
	DB	00H
	DB	00H
	DB	00H
	DB	00H
	DB	00H
	DB	00H
	DB	00H
	DB	00H
	DB	00H
	DB	00H
	DB	00H
	DB	00H
	DB	00H
	DB	00H
	DB	00H
	DB	00H
	DB	00H
	DB	00H
	DB	00H
	DB	00H
	DB	00H
	DB	00H
	DB	00H
	DB	00H
	DB	00H
	DB	00H
	DB	00H
	DB	00H
	DB	00H
	DB	00H
	DB	00H
	DB	00H
	DB	00H
	DB	00H
	DB	070H
	DB	05cH
	DB	030H
	DB	071H
	DB	078H
	DB	05cH
	DB	038H
	DB	0efH
	DB	070H
	DB	060H
	DB	038H
	DB	0ffH
	DB	070H
	DB	060H
	DB	030H
	DB	0ffH
	DB	078H
	DB	05cH
	DB	030H
	DB	0ffH
	DB	070H
	DB	060H
	DB	038H
	DB	0ffH
	DB	078H
	DB	060H
	DB	030H
	DB	0ffH
	DB	070H
	DB	05cH
	DB	030H
	DB	0ffH
	DB	078H
	DB	060H
	DB	038H
	DB	0ffH
	DB	070H
	DB	05cH
	DB	030H
	DB	0ffH
	DB	078H
	DB	060H
	DB	030H
	DB	0ffH
	DB	070H
	DB	05cH
	DB	038H
	DB	0ffH
	DB	070H
	DB	060H
	DB	030H
	DB	0ffH
	DB	078H
	DB	05cH
	DB	030H
	DB	0ffH
	DB	070H
	DB	060H
	DB	038H
	DB	0ffH
	DB	070H
	DB	05cH
	DB	030H
	DB	0ffH
	DB	078H
	DB	060H
	DB	030H
	DB	0ffH
	DB	070H
	DB	05cH
	DB	038H
	DB	0ffH
	DB	070H
	DB	05cH
	DB	030H
	DB	0ffH
	DB	078H
	DB	060H
	DB	030H
	DB	0ffH
	DB	070H
	DB	05cH
	DB	038H
	DB	0ffH
	DB	070H
	DB	060H
	DB	030H
	DB	0ffH
	DB	078H
	DB	05cH
	DB	030H
	DB	0ffH
	DB	070H
	DB	060H
	DB	038H
	DB	0ffH
	DB	070H
	DB	05cH
	DB	030H
	DB	0ffH
	DB	078H
	DB	060H
	DB	030H
	DB	0ffH
	DB	070H
	DB	05cH
	DB	038H
	DB	0ffH
	DB	070H
	DB	05cH
	DB	030H
	DB	0ffH
	DB	078H
	DB	060H
	DB	030H
	DB	0ffH
	DB	070H
	DB	05cH
	DB	038H
	DB	0ffH
	DB	070H
	DB	060H
	DB	030H
	DB	0ffH
	DB	078H
	DB	05cH
	DB	030H
	DB	0ffH
	DB	070H
	DB	060H
	DB	038H
	DB	0ffH
	DB	070H
	DB	05cH
	DB	030H
	DB	0ffH
	DB	078H
	DB	060H
	DB	030H
	DB	0ffH
	DB	070H
	DB	05cH
	DB	038H
	DB	0ffH
	DB	070H
	DB	05cH
	DB	030H
	DB	0ffH
	DB	078H
	DB	060H
	DB	030H
	DB	0ffH
	DB	070H
	DB	05cH
	DB	038H
	DB	0ffH
	DB	070H
	DB	060H
	DB	030H
	DB	0ffH
	DB	078H
	DB	05cH
	DB	030H
	DB	0ffH
	DB	070H
	DB	060H
	DB	038H
	DB	0ffH
	DB	070H
	DB	05cH
	DB	030H
	DB	0ffH
	DB	078H
	DB	060H
	DB	030H
	DB	0ffH
	DB	070H
	DB	05cH
	DB	038H
	DB	0ffH
	DB	070H
	DB	05cH
	DB	030H
	DB	0ffH
	DB	078H
	DB	060H
	DB	030H
	DB	0ffH
	DB	070H
	DB	05cH
	DB	038H
	DB	0ffH
	DB	070H
	DB	060H
	DB	030H
	DB	0ffH
	DB	078H
	DB	05cH
	DB	030H
	DB	0ffH
	DB	070H
	DB	060H
	DB	038H
	DB	0ffH
	DB	070H
	DB	05cH
	DB	030H
	DB	0ffH
	DB	078H
	DB	060H
	DB	030H
	DB	0ffH
	DB	070H
	DB	05cH
	DB	038H
	DB	0ffH
	DB	070H
	DB	05cH
	DB	030H
	DB	0ffH
	DB	078H
	DB	060H
	DB	030H
	DB	0ffH
	DB	070H
	DB	05cH
	DB	038H
	DB	0ffH
	DB	070H
	DB	060H
	DB	030H
	DB	0ffH
	DB	078H
	DB	05cH
	DB	030H
	DB	0ffH
	DB	070H
	DB	060H
	DB	038H
	DB	0ffH
	DB	070H
	DB	05cH
	DB	030H
	DB	0ffH
	DB	078H
	DB	060H
	DB	030H
	DB	0ffH
	DB	070H
	DB	05cH
	DB	038H
	DB	0ffH
	DB	070H
	DB	05cH
	DB	030H
	DB	0ffH
	DB	078H
	DB	060H
	DB	030H
	DB	0ffH
	DB	070H
	DB	05cH
	DB	038H
	DB	0ffH
	DB	070H
	DB	060H
	DB	030H
	DB	0ffH
	DB	078H
	DB	05cH
	DB	030H
	DB	0ffH
	DB	070H
	DB	060H
	DB	038H
	DB	0ffH
	DB	070H
	DB	05cH
	DB	030H
	DB	0ffH
	DB	078H
	DB	060H
	DB	030H
	DB	0ffH
	DB	070H
	DB	05cH
	DB	038H
	DB	0ffH
	DB	070H
	DB	05cH
	DB	030H
	DB	0ffH
	DB	078H
	DB	060H
	DB	030H
	DB	0ffH
	DB	070H
	DB	05cH
	DB	038H
	DB	0ffH
	DB	070H
	DB	060H
	DB	030H
	DB	0ffH
	DB	078H
	DB	05cH
	DB	030H
	DB	0ffH
	DB	070H
	DB	060H
	DB	038H
	DB	0ffH
	DB	070H
	DB	05cH
	DB	030H
	DB	0ffH
	DB	078H
	DB	060H
	DB	030H
	DB	0ffH
	DB	070H
	DB	05cH
	DB	038H
	DB	0ffH
	DB	070H
	DB	05cH
	DB	030H
	DB	0ffH
	DB	078H
	DB	060H
	DB	030H
	DB	0ffH
	DB	070H
	DB	05cH
	DB	038H
	DB	0ffH
	DB	070H
	DB	060H
	DB	030H
	DB	0ffH
	DB	078H
	DB	05cH
	DB	030H
	DB	0ffH
	DB	070H
	DB	060H
	DB	038H
	DB	0ffH
	DB	070H
	DB	05cH
	DB	030H
	DB	0ffH
	DB	078H
	DB	060H
	DB	030H
	DB	0ffH
	DB	070H
	DB	05cH
	DB	038H
	DB	0ffH
	DB	070H
	DB	05cH
	DB	030H
	DB	0ffH
	DB	078H
	DB	060H
	DB	030H
	DB	0ffH
	DB	070H
	DB	05cH
	DB	038H
	DB	0ffH
	DB	070H
	DB	060H
	DB	030H
	DB	0ffH
	DB	078H
	DB	05cH
	DB	038H
	DB	0ffH
	DB	078H
	DB	05cH
	DB	038H
	DB	0ffH
	DB	078H
	DB	060H
	DB	030H
	DB	0ffH
	DB	070H
	DB	05cH
	DB	030H
	DB	0ffH
	DB	078H
	DB	060H
	DB	038H
	DB	0ffH
	DB	070H
	DB	05cH
	DB	030H
	DB	0ffH
	DB	070H
	DB	05cH
	DB	030H
	DB	0efH
	DB	078H
	DB	05cH
	DB	030H
	DB	071H
	DB	00H
	DB	00H
	DB	00H
	DB	00H
	DB	00H
	DB	00H
	DB	00H
	DB	00H
	DB	00H
	DB	00H
	DB	00H
	DB	00H
	DB	00H
	DB	00H
	DB	00H
	DB	00H
	DB	00H
	DB	00H
	DB	00H
	DB	00H
	DB	00H
	DB	00H
	DB	00H
	DB	00H
	DB	00H
	DB	00H
	DB	00H
	DB	00H
	DB	070H
	DB	05cH
	DB	030H
	DB	082H
	DB	078H
	DB	060H
	DB	038H
	DB	0ffH
	DB	078H
	DB	05cH
	DB	030H
	DB	0ffH
	DB	070H
	DB	05cH
	DB	038H
	DB	0ffH
	DB	078H
	DB	060H
	DB	030H
	DB	0ffH
	DB	070H
	DB	05cH
	DB	038H
	DB	0ffH
	DB	078H
	DB	05cH
	DB	038H
	DB	0ffH
	DB	070H
	DB	060H
	DB	030H
	DB	0ffH
	DB	070H
	DB	05cH
	DB	038H
	DB	0ffH
	DB	078H
	DB	05cH
	DB	038H
	DB	0ffH
	DB	070H
	DB	060H
	DB	030H
	DB	0ffH
	DB	070H
	DB	05cH
	DB	038H
	DB	0ffH
	DB	078H
	DB	060H
	DB	038H
	DB	0ffH
	DB	078H
	DB	05cH
	DB	030H
	DB	0ffH
	DB	070H
	DB	060H
	DB	038H
	DB	0ffH
	DB	078H
	DB	05cH
	DB	038H
	DB	0ffH
	DB	078H
	DB	060H
	DB	030H
	DB	0ffH
	DB	070H
	DB	060H
	DB	038H
	DB	0ffH
	DB	078H
	DB	05cH
	DB	038H
	DB	0ffH
	DB	078H
	DB	060H
	DB	030H
	DB	0ffH
	DB	070H
	DB	05cH
	DB	038H
	DB	0ffH
	DB	078H
	DB	060H
	DB	038H
	DB	0ffH
	DB	078H
	DB	05cH
	DB	030H
	DB	0ffH
	DB	070H
	DB	060H
	DB	038H
	DB	0ffH
	DB	078H
	DB	05cH
	DB	038H
	DB	0ffH
	DB	078H
	DB	060H
	DB	030H
	DB	0ffH
	DB	070H
	DB	060H
	DB	038H
	DB	0ffH
	DB	078H
	DB	05cH
	DB	038H
	DB	0ffH
	DB	078H
	DB	060H
	DB	030H
	DB	0ffH
	DB	070H
	DB	05cH
	DB	038H
	DB	0ffH
	DB	078H
	DB	060H
	DB	038H
	DB	0ffH
	DB	078H
	DB	05cH
	DB	030H
	DB	0ffH
	DB	070H
	DB	060H
	DB	038H
	DB	0ffH
	DB	078H
	DB	05cH
	DB	038H
	DB	0ffH
	DB	078H
	DB	060H
	DB	030H
	DB	0ffH
	DB	070H
	DB	060H
	DB	038H
	DB	0ffH
	DB	078H
	DB	05cH
	DB	038H
	DB	0ffH
	DB	078H
	DB	060H
	DB	030H
	DB	0ffH
	DB	070H
	DB	05cH
	DB	038H
	DB	0ffH
	DB	078H
	DB	060H
	DB	038H
	DB	0ffH
	DB	078H
	DB	05cH
	DB	030H
	DB	0ffH
	DB	070H
	DB	060H
	DB	038H
	DB	0ffH
	DB	078H
	DB	05cH
	DB	038H
	DB	0ffH
	DB	078H
	DB	060H
	DB	030H
	DB	0ffH
	DB	070H
	DB	060H
	DB	038H
	DB	0ffH
	DB	078H
	DB	05cH
	DB	038H
	DB	0ffH
	DB	078H
	DB	060H
	DB	030H
	DB	0ffH
	DB	070H
	DB	05cH
	DB	038H
	DB	0ffH
	DB	078H
	DB	060H
	DB	038H
	DB	0ffH
	DB	078H
	DB	05cH
	DB	030H
	DB	0ffH
	DB	070H
	DB	060H
	DB	038H
	DB	0ffH
	DB	078H
	DB	05cH
	DB	038H
	DB	0ffH
	DB	078H
	DB	060H
	DB	030H
	DB	0ffH
	DB	070H
	DB	060H
	DB	038H
	DB	0ffH
	DB	078H
	DB	05cH
	DB	038H
	DB	0ffH
	DB	078H
	DB	060H
	DB	030H
	DB	0ffH
	DB	070H
	DB	05cH
	DB	038H
	DB	0ffH
	DB	078H
	DB	060H
	DB	038H
	DB	0ffH
	DB	078H
	DB	05cH
	DB	030H
	DB	0ffH
	DB	070H
	DB	060H
	DB	038H
	DB	0ffH
	DB	078H
	DB	05cH
	DB	038H
	DB	0ffH
	DB	078H
	DB	060H
	DB	030H
	DB	0ffH
	DB	070H
	DB	060H
	DB	038H
	DB	0ffH
	DB	078H
	DB	05cH
	DB	038H
	DB	0ffH
	DB	078H
	DB	060H
	DB	030H
	DB	0ffH
	DB	070H
	DB	05cH
	DB	038H
	DB	0ffH
	DB	078H
	DB	060H
	DB	038H
	DB	0ffH
	DB	078H
	DB	05cH
	DB	030H
	DB	0ffH
	DB	070H
	DB	060H
	DB	038H
	DB	0ffH
	DB	078H
	DB	05cH
	DB	038H
	DB	0ffH
	DB	078H
	DB	060H
	DB	030H
	DB	0ffH
	DB	070H
	DB	060H
	DB	038H
	DB	0ffH
	DB	078H
	DB	05cH
	DB	038H
	DB	0ffH
	DB	078H
	DB	060H
	DB	030H
	DB	0ffH
	DB	070H
	DB	05cH
	DB	038H
	DB	0ffH
	DB	078H
	DB	060H
	DB	038H
	DB	0ffH
	DB	078H
	DB	05cH
	DB	030H
	DB	0ffH
	DB	070H
	DB	060H
	DB	038H
	DB	0ffH
	DB	078H
	DB	05cH
	DB	038H
	DB	0ffH
	DB	078H
	DB	060H
	DB	030H
	DB	0ffH
	DB	070H
	DB	060H
	DB	038H
	DB	0ffH
	DB	078H
	DB	05cH
	DB	038H
	DB	0ffH
	DB	078H
	DB	060H
	DB	030H
	DB	0ffH
	DB	070H
	DB	05cH
	DB	038H
	DB	0ffH
	DB	078H
	DB	060H
	DB	038H
	DB	0ffH
	DB	078H
	DB	05cH
	DB	030H
	DB	0ffH
	DB	070H
	DB	060H
	DB	038H
	DB	0ffH
	DB	078H
	DB	05cH
	DB	038H
	DB	0ffH
	DB	078H
	DB	060H
	DB	030H
	DB	0ffH
	DB	070H
	DB	060H
	DB	038H
	DB	0ffH
	DB	078H
	DB	05cH
	DB	038H
	DB	0ffH
	DB	078H
	DB	060H
	DB	030H
	DB	0ffH
	DB	070H
	DB	05cH
	DB	038H
	DB	0ffH
	DB	078H
	DB	060H
	DB	030H
	DB	0ffH
	DB	070H
	DB	060H
	DB	030H
	DB	0ffH
	DB	070H
	DB	05cH
	DB	038H
	DB	0ffH
	DB	078H
	DB	060H
	DB	030H
	DB	0ffH
	DB	070H
	DB	060H
	DB	038H
	DB	0ffH
	DB	078H
	DB	05cH
	DB	038H
	DB	0ffH
	DB	078H
	DB	060H
	DB	030H
	DB	0ffH
	DB	070H
	DB	060H
	DB	038H
	DB	0ffH
	DB	070H
	DB	05cH
	DB	038H
	DB	0ffH
	DB	078H
	DB	060H
	DB	030H
	DB	0ffH
	DB	070H
	DB	060H
	DB	038H
	DB	082H
	DB	00H
	DB	00H
	DB	00H
	DB	00H
	DB	00H
	DB	00H
	DB	00H
	DB	00H
	DB	00H
	DB	00H
	DB	00H
	DB	00H
	DB	00H
	DB	00H
	DB	00H
	DB	00H
	DB	00H
	DB	00H
	DB	00H
	DB	00H
	DB	070H
	DB	05cH
	DB	030H
	DB	071H
	DB	078H
	DB	060H
	DB	038H
	DB	0ffH
	DB	070H
	DB	060H
	DB	030H
	DB	0ffH
	DB	070H
	DB	05cH
	DB	038H
	DB	0ffH
	DB	078H
	DB	060H
	DB	030H
	DB	0ffH
	DB	078H
	DB	060H
	DB	038H
	DB	0ffH
	DB	070H
	DB	05cH
	DB	030H
	DB	0beH
	DB	078H
	DB	060H
	DB	030H
	DB	06dH
	DB	070H
	DB	058H
	DB	038H
	DB	020H
	DB	00H
	DB	00H
	DB	00H
	DB	00H
	DB	00H
	DB	00H
	DB	00H
	DB	00H
	DB	00H
	DB	00H
	DB	00H
	DB	00H
	DB	00H
	DB	00H
	DB	00H
	DB	00H
	DB	00H
	DB	00H
	DB	00H
	DB	00H
	DB	00H
	DB	00H
	DB	00H
	DB	00H
	DB	00H
	DB	00H
	DB	00H
	DB	00H
	DB	00H
	DB	00H
	DB	00H
	DB	00H
	DB	00H
	DB	00H
	DB	00H
	DB	00H
	DB	00H
	DB	00H
	DB	00H
	DB	00H
	DB	00H
	DB	00H
	DB	00H
	DB	00H
	DB	00H
	DB	00H
	DB	00H
	DB	00H
	DB	00H
	DB	00H
	DB	00H
	DB	00H
	DB	00H
	DB	00H
	DB	00H
	DB	00H
	DB	00H
	DB	00H
	DB	00H
	DB	00H
	DB	00H
	DB	00H
	DB	00H
	DB	00H
	DB	00H
	DB	00H
	DB	00H
	DB	00H
	DB	00H
	DB	00H
	DB	00H
	DB	00H
	DB	00H
	DB	00H
	DB	00H
	DB	00H
	DB	00H
	DB	00H
	DB	00H
	DB	00H
	DB	00H
	DB	00H
	DB	00H
	DB	00H
	DB	00H
	DB	00H
	DB	00H
	DB	00H
	DB	00H
	DB	00H
	DB	00H
	DB	00H
	DB	00H
	DB	00H
	DB	00H
	DB	00H
	DB	00H
	DB	00H
	DB	00H
	DB	00H
	DB	00H
	DB	00H
	DB	00H
	DB	00H
	DB	00H
	DB	00H
	DB	00H
	DB	00H
	DB	00H
	DB	00H
	DB	00H
	DB	00H
	DB	00H
	DB	00H
	DB	00H
	DB	00H
	DB	00H
	DB	00H
	DB	00H
	DB	00H
	DB	00H
	DB	00H
	DB	00H
	DB	00H
	DB	00H
	DB	00H
	DB	00H
	DB	00H
	DB	00H
	DB	00H
	DB	00H
	DB	00H
	DB	00H
	DB	00H
	DB	00H
	DB	00H
	DB	00H
	DB	00H
	DB	00H
	DB	00H
	DB	00H
	DB	00H
	DB	00H
	DB	00H
	DB	00H
	DB	00H
	DB	00H
	DB	00H
	DB	00H
	DB	00H
	DB	00H
	DB	00H
	DB	00H
	DB	00H
	DB	00H
	DB	00H
	DB	00H
	DB	00H
	DB	00H
	DB	00H
	DB	00H
	DB	00H
	DB	00H
	DB	00H
	DB	00H
	DB	00H
	DB	00H
	DB	00H
	DB	00H
	DB	00H
	DB	00H
	DB	00H
	DB	00H
	DB	00H
	DB	00H
	DB	00H
	DB	00H
	DB	00H
	DB	00H
	DB	00H
	DB	00H
	DB	00H
	DB	00H
	DB	00H
	DB	00H
	DB	00H
	DB	00H
	DB	00H
	DB	00H
	DB	00H
	DB	00H
	DB	00H
	DB	00H
	DB	00H
	DB	00H
	DB	00H
	DB	00H
	DB	00H
	DB	00H
	DB	00H
	DB	00H
	DB	00H
	DB	00H
	DB	00H
	DB	00H
	DB	00H
	DB	00H
	DB	00H
	DB	00H
	DB	00H
	DB	00H
	DB	00H
	DB	00H
	DB	00H
	DB	00H
	DB	00H
	DB	00H
	DB	00H
	DB	00H
	DB	00H
	DB	00H
	DB	00H
	DB	00H
	DB	00H
	DB	00H
	DB	00H
	DB	00H
	DB	00H
	DB	00H
	DB	00H
	DB	00H
	DB	00H
	DB	00H
	DB	00H
	DB	00H
	DB	00H
	DB	00H
	DB	00H
	DB	00H
	DB	00H
	DB	00H
	DB	00H
	DB	00H
	DB	00H
	DB	00H
	DB	00H
	DB	00H
	DB	00H
	DB	00H
	DB	00H
	DB	00H
	DB	00H
	DB	00H
	DB	00H
	DB	00H
	DB	00H
	DB	00H
	DB	00H
	DB	00H
	DB	00H
	DB	00H
	DB	00H
	DB	00H
	DB	00H
	DB	00H
	DB	00H
	DB	00H
	DB	00H
	DB	00H
	DB	00H
	DB	00H
	DB	00H
	DB	00H
	DB	00H
	DB	00H
	DB	00H
	DB	00H
	DB	00H
	DB	00H
	DB	00H
	DB	00H
	DB	00H
	DB	00H
	DB	00H
	DB	00H
	DB	00H
	DB	00H
	DB	00H
	DB	00H
	DB	00H
	DB	00H
	DB	00H
	DB	00H
	DB	00H
	DB	00H
	DB	00H
	DB	00H
	DB	00H
	DB	00H
	DB	00H
	DB	00H
	DB	00H
	DB	00H
	DB	00H
	DB	00H
	DB	00H
	DB	00H
	DB	00H
	DB	00H
	DB	00H
	DB	00H
	DB	00H
	DB	00H
	DB	00H
	DB	00H
	DB	00H
	DB	00H
	DB	00H
	DB	00H
	DB	00H
	DB	00H
	DB	00H
	DB	00H
	DB	00H
	DB	00H
	DB	00H
	DB	00H
	DB	00H
	DB	00H
	DB	00H
	DB	00H
	DB	00H
	DB	00H
	DB	00H
	DB	00H
	DB	00H
	DB	00H
	DB	00H
	DB	00H
	DB	00H
	DB	00H
	DB	00H
	DB	00H
	DB	00H
	DB	00H
	DB	00H
	DB	00H
	DB	00H
	DB	00H
	DB	00H
	DB	00H
	DB	00H
	DB	078H
	DB	058H
	DB	038H
	DB	030H
	DB	070H
	DB	05cH
	DB	030H
	DB	061H
	DB	070H
	DB	060H
	DB	030H
	DB	0dfH
	DB	078H
	DB	05cH
	DB	038H
	DB	0ffH
	DB	078H
	DB	060H
	DB	030H
	DB	0ffH
	DB	070H
	DB	05cH
	DB	038H
	DB	0ffH
	DB	078H
	DB	05cH
	DB	038H
	DB	0ffH
	DB	070H
	DB	060H
	DB	030H
	DB	0ffH
	DB	070H
	DB	05cH
	DB	030H
	DB	071H
	DB	00H
	DB	00H
	DB	00H
	DB	00H
	DB	00H
	DB	00H
	DB	00H
	DB	00H
	DB	00H
	DB	00H
	DB	00H
	DB	00H
	DB	078H
	DB	060H
	DB	038H
	DB	020H
	DB	078H
	DB	05cH
	DB	038H
	DB	0efH
	DB	070H
	DB	05cH
	DB	030H
	DB	0ffH
	DB	078H
	DB	060H
	DB	038H
	DB	0ffH
	DB	070H
	DB	05cH
	DB	030H
	DB	0ffH
	DB	078H
	DB	05cH
	DB	030H
	DB	0efH
	DB	078H
	DB	05cH
	DB	038H
	DB	06dH
	DB	00H
	DB	00H
	DB	00H
	DB	00H
	DB	00H
	DB	00H
	DB	00H
	DB	00H
	DB	00H
	DB	00H
	DB	00H
	DB	00H
	DB	00H
	DB	00H
	DB	00H
	DB	00H
	DB	00H
	DB	00H
	DB	00H
	DB	00H
	DB	00H
	DB	00H
	DB	00H
	DB	00H
	DB	00H
	DB	00H
	DB	00H
	DB	00H
	DB	00H
	DB	00H
	DB	00H
	DB	00H
	DB	00H
	DB	00H
	DB	00H
	DB	00H
	DB	00H
	DB	00H
	DB	00H
	DB	00H
	DB	00H
	DB	00H
	DB	00H
	DB	00H
	DB	00H
	DB	00H
	DB	00H
	DB	00H
	DB	00H
	DB	00H
	DB	00H
	DB	00H
	DB	00H
	DB	00H
	DB	00H
	DB	00H
	DB	00H
	DB	00H
	DB	00H
	DB	00H
	DB	00H
	DB	00H
	DB	00H
	DB	00H
	DB	00H
	DB	00H
	DB	00H
	DB	00H
	DB	00H
	DB	00H
	DB	00H
	DB	00H
	DB	00H
	DB	00H
	DB	00H
	DB	00H
	DB	00H
	DB	00H
	DB	00H
	DB	00H
	DB	00H
	DB	00H
	DB	00H
	DB	00H
	DB	00H
	DB	00H
	DB	00H
	DB	00H
	DB	00H
	DB	00H
	DB	00H
	DB	00H
	DB	00H
	DB	00H
	DB	00H
	DB	00H
	DB	00H
	DB	00H
	DB	00H
	DB	00H
	DB	00H
	DB	00H
	DB	00H
	DB	00H
	DB	00H
	DB	00H
	DB	00H
	DB	00H
	DB	00H
	DB	00H
	DB	00H
	DB	00H
	DB	00H
	DB	00H
	DB	00H
	DB	00H
	DB	00H
	DB	00H
	DB	00H
	DB	00H
	DB	00H
	DB	00H
	DB	00H
	DB	00H
	DB	00H
	DB	00H
	DB	00H
	DB	00H
	DB	00H
	DB	00H
	DB	00H
	DB	00H
	DB	00H
	DB	00H
	DB	00H
	DB	00H
	DB	00H
	DB	00H
	DB	00H
	DB	00H
	DB	00H
	DB	00H
	DB	00H
	DB	00H
	DB	00H
	DB	00H
	DB	00H
	DB	00H
	DB	00H
	DB	00H
	DB	00H
	DB	00H
	DB	00H
	DB	00H
	DB	00H
	DB	00H
	DB	00H
	DB	00H
	DB	00H
	DB	00H
	DB	00H
	DB	00H
	DB	00H
	DB	00H
	DB	00H
	DB	00H
	DB	00H
	DB	00H
	DB	00H
	DB	00H
	DB	00H
	DB	00H
	DB	00H
	DB	00H
	DB	00H
	DB	00H
	DB	00H
	DB	00H
	DB	00H
	DB	00H
	DB	00H
	DB	00H
	DB	00H
	DB	00H
	DB	00H
	DB	00H
	DB	00H
	DB	00H
	DB	00H
	DB	00H
	DB	00H
	DB	00H
	DB	00H
	DB	00H
	DB	00H
	DB	00H
	DB	00H
	DB	00H
	DB	00H
	DB	00H
	DB	00H
	DB	00H
	DB	00H
	DB	00H
	DB	00H
	DB	00H
	DB	00H
	DB	00H
	DB	00H
	DB	00H
	DB	00H
	DB	00H
	DB	00H
	DB	00H
	DB	00H
	DB	00H
	DB	00H
	DB	00H
	DB	00H
	DB	00H
	DB	00H
	DB	00H
	DB	00H
	DB	00H
	DB	00H
	DB	00H
	DB	00H
	DB	00H
	DB	00H
	DB	00H
	DB	00H
	DB	00H
	DB	00H
	DB	00H
	DB	00H
	DB	00H
	DB	00H
	DB	00H
	DB	00H
	DB	00H
	DB	00H
	DB	00H
	DB	00H
	DB	00H
	DB	00H
	DB	00H
	DB	00H
	DB	00H
	DB	00H
	DB	00H
	DB	00H
	DB	00H
	DB	00H
	DB	00H
	DB	00H
	DB	00H
	DB	00H
	DB	00H
	DB	00H
	DB	00H
	DB	00H
	DB	00H
	DB	00H
	DB	00H
	DB	00H
	DB	00H
	DB	00H
	DB	00H
	DB	00H
	DB	00H
	DB	00H
	DB	00H
	DB	00H
	DB	00H
	DB	00H
	DB	00H
	DB	00H
	DB	00H
	DB	00H
	DB	00H
	DB	00H
	DB	00H
	DB	00H
	DB	00H
	DB	00H
	DB	00H
	DB	00H
	DB	00H
	DB	00H
	DB	00H
	DB	00H
	DB	00H
	DB	00H
	DB	00H
	DB	00H
	DB	00H
	DB	00H
	DB	00H
	DB	00H
	DB	00H
	DB	00H
	DB	00H
	DB	00H
	DB	00H
	DB	00H
	DB	00H
	DB	00H
	DB	00H
	DB	00H
	DB	00H
	DB	00H
	DB	00H
	DB	00H
	DB	00H
	DB	00H
	DB	00H
	DB	00H
	DB	00H
	DB	00H
	DB	00H
	DB	00H
	DB	00H
	DB	00H
	DB	00H
	DB	00H
	DB	00H
	DB	00H
	DB	00H
	DB	00H
	DB	00H
	DB	00H
	DB	00H
	DB	00H
	DB	00H
	DB	00H
	DB	00H
	DB	00H
	DB	00H
	DB	00H
	DB	00H
	DB	00H
	DB	00H
	DB	00H
	DB	00H
	DB	00H
	DB	00H
	DB	00H
	DB	00H
	DB	00H
	DB	00H
	DB	00H
	DB	00H
	DB	00H
	DB	00H
	DB	00H
	DB	00H
	DB	00H
	DB	00H
	DB	00H
	DB	00H
	DB	00H
	DB	00H
	DB	00H
	DB	00H
	DB	00H
	DB	00H
	DB	00H
	DB	00H
	DB	00H
	DB	00H
	DB	00H
	DB	00H
	DB	00H
	DB	00H
	DB	00H
	DB	00H
	DB	070H
	DB	05cH
	DB	030H
	DB	071H
	DB	070H
	DB	060H
	DB	030H
	DB	0efH
	DB	078H
	DB	05cH
	DB	030H
	DB	0ffH
	DB	078H
	DB	060H
	DB	038H
	DB	0ffH
	DB	070H
	DB	05cH
	DB	030H
	DB	0ffH
	DB	078H
	DB	05cH
	DB	038H
	DB	0efH
	DB	078H
	DB	060H
	DB	038H
	DB	020H
	DB	00H
	DB	00H
	DB	00H
	DB	00H
	DB	00H
	DB	00H
	DB	00H
	DB	00H
	DB	078H
	DB	060H
	DB	038H
	DB	09eH
	DB	070H
	DB	05cH
	DB	030H
	DB	0ffH
	DB	078H
	DB	060H
	DB	038H
	DB	0ffH
	DB	070H
	DB	060H
	DB	038H
	DB	0ffH
	DB	078H
	DB	05cH
	DB	030H
	DB	0efH
	DB	070H
	DB	05cH
	DB	030H
	DB	030H
	DB	00H
	DB	00H
	DB	00H
	DB	00H
	DB	00H
	DB	00H
	DB	00H
	DB	00H
	DB	00H
	DB	00H
	DB	00H
	DB	00H
	DB	00H
	DB	00H
	DB	00H
	DB	00H
	DB	00H
	DB	00H
	DB	00H
	DB	00H
	DB	00H
	DB	00H
	DB	00H
	DB	00H
	DB	00H
	DB	00H
	DB	00H
	DB	00H
	DB	00H
	DB	00H
	DB	00H
	DB	00H
	DB	00H
	DB	00H
	DB	00H
	DB	00H
	DB	00H
	DB	00H
	DB	00H
	DB	00H
	DB	00H
	DB	00H
	DB	00H
	DB	00H
	DB	00H
	DB	00H
	DB	00H
	DB	00H
	DB	00H
	DB	00H
	DB	00H
	DB	00H
	DB	00H
	DB	00H
	DB	00H
	DB	00H
	DB	00H
	DB	00H
	DB	00H
	DB	00H
	DB	00H
	DB	00H
	DB	00H
	DB	00H
	DB	00H
	DB	00H
	DB	00H
	DB	00H
	DB	00H
	DB	00H
	DB	00H
	DB	00H
	DB	00H
	DB	00H
	DB	00H
	DB	00H
	DB	00H
	DB	00H
	DB	00H
	DB	00H
	DB	00H
	DB	00H
	DB	00H
	DB	00H
	DB	00H
	DB	00H
	DB	00H
	DB	00H
	DB	00H
	DB	00H
	DB	00H
	DB	00H
	DB	00H
	DB	00H
	DB	00H
	DB	00H
	DB	00H
	DB	00H
	DB	00H
	DB	00H
	DB	00H
	DB	00H
	DB	00H
	DB	00H
	DB	00H
	DB	00H
	DB	00H
	DB	00H
	DB	00H
	DB	00H
	DB	00H
	DB	00H
	DB	00H
	DB	00H
	DB	00H
	DB	00H
	DB	00H
	DB	00H
	DB	00H
	DB	00H
	DB	00H
	DB	00H
	DB	00H
	DB	00H
	DB	00H
	DB	00H
	DB	00H
	DB	00H
	DB	00H
	DB	00H
	DB	00H
	DB	00H
	DB	00H
	DB	00H
	DB	00H
	DB	00H
	DB	00H
	DB	00H
	DB	00H
	DB	00H
	DB	00H
	DB	00H
	DB	00H
	DB	00H
	DB	00H
	DB	00H
	DB	00H
	DB	00H
	DB	00H
	DB	00H
	DB	00H
	DB	00H
	DB	00H
	DB	00H
	DB	00H
	DB	00H
	DB	00H
	DB	00H
	DB	00H
	DB	00H
	DB	00H
	DB	00H
	DB	00H
	DB	00H
	DB	00H
	DB	00H
	DB	00H
	DB	00H
	DB	00H
	DB	00H
	DB	00H
	DB	00H
	DB	00H
	DB	00H
	DB	00H
	DB	00H
	DB	00H
	DB	00H
	DB	00H
	DB	00H
	DB	00H
	DB	00H
	DB	00H
	DB	00H
	DB	00H
	DB	00H
	DB	00H
	DB	00H
	DB	00H
	DB	00H
	DB	00H
	DB	00H
	DB	00H
	DB	00H
	DB	00H
	DB	00H
	DB	00H
	DB	00H
	DB	00H
	DB	00H
	DB	00H
	DB	00H
	DB	00H
	DB	00H
	DB	00H
	DB	00H
	DB	00H
	DB	00H
	DB	00H
	DB	00H
	DB	00H
	DB	00H
	DB	00H
	DB	00H
	DB	00H
	DB	00H
	DB	00H
	DB	00H
	DB	00H
	DB	00H
	DB	00H
	DB	00H
	DB	00H
	DB	00H
	DB	00H
	DB	00H
	DB	00H
	DB	00H
	DB	00H
	DB	00H
	DB	00H
	DB	00H
	DB	00H
	DB	00H
	DB	00H
	DB	00H
	DB	00H
	DB	00H
	DB	00H
	DB	00H
	DB	00H
	DB	00H
	DB	00H
	DB	00H
	DB	00H
	DB	00H
	DB	00H
	DB	00H
	DB	00H
	DB	00H
	DB	00H
	DB	00H
	DB	00H
	DB	00H
	DB	00H
	DB	00H
	DB	00H
	DB	00H
	DB	00H
	DB	00H
	DB	00H
	DB	00H
	DB	00H
	DB	00H
	DB	00H
	DB	00H
	DB	00H
	DB	00H
	DB	00H
	DB	00H
	DB	00H
	DB	00H
	DB	00H
	DB	00H
	DB	00H
	DB	00H
	DB	00H
	DB	00H
	DB	00H
	DB	00H
	DB	00H
	DB	00H
	DB	00H
	DB	00H
	DB	00H
	DB	00H
	DB	00H
	DB	00H
	DB	00H
	DB	00H
	DB	00H
	DB	00H
	DB	00H
	DB	00H
	DB	00H
	DB	00H
	DB	00H
	DB	00H
	DB	00H
	DB	00H
	DB	00H
	DB	00H
	DB	00H
	DB	00H
	DB	00H
	DB	00H
	DB	00H
	DB	00H
	DB	00H
	DB	00H
	DB	00H
	DB	00H
	DB	00H
	DB	00H
	DB	00H
	DB	00H
	DB	00H
	DB	00H
	DB	00H
	DB	00H
	DB	00H
	DB	00H
	DB	00H
	DB	00H
	DB	00H
	DB	00H
	DB	00H
	DB	00H
	DB	00H
	DB	00H
	DB	00H
	DB	00H
	DB	00H
	DB	00H
	DB	00H
	DB	00H
	DB	00H
	DB	00H
	DB	00H
	DB	00H
	DB	00H
	DB	00H
	DB	00H
	DB	00H
	DB	00H
	DB	00H
	DB	00H
	DB	00H
	DB	00H
	DB	00H
	DB	00H
	DB	00H
	DB	00H
	DB	00H
	DB	00H
	DB	00H
	DB	00H
	DB	00H
	DB	00H
	DB	00H
	DB	00H
	DB	00H
	DB	00H
	DB	00H
	DB	00H
	DB	00H
	DB	00H
	DB	00H
	DB	00H
	DB	00H
	DB	00H
	DB	00H
	DB	00H
	DB	00H
	DB	00H
	DB	00H
	DB	00H
	DB	00H
	DB	00H
	DB	00H
	DB	00H
	DB	00H
	DB	00H
	DB	00H
	DB	078H
	DB	058H
	DB	038H
	DB	030H
	DB	070H
	DB	060H
	DB	038H
	DB	0efH
	DB	070H
	DB	060H
	DB	030H
	DB	0ffH
	DB	078H
	DB	05cH
	DB	038H
	DB	0ffH
	DB	078H
	DB	060H
	DB	038H
	DB	0ffH
	DB	070H
	DB	05cH
	DB	030H
	DB	0beH
	DB	00H
	DB	00H
	DB	00H
	DB	00H
	DB	078H
	DB	060H
	DB	038H
	DB	020H
	DB	070H
	DB	05cH
	DB	030H
	DB	0ffH
	DB	070H
	DB	060H
	DB	030H
	DB	0ffH
	DB	078H
	DB	05cH
	DB	038H
	DB	0ffH
	DB	078H
	DB	05cH
	DB	030H
	DB	0ffH
	DB	070H
	DB	05cH
	DB	038H
	DB	06dH
	DB	00H
	DB	00H
	DB	00H
	DB	00H
	DB	00H
	DB	00H
	DB	00H
	DB	00H
	DB	00H
	DB	00H
	DB	00H
	DB	00H
	DB	00H
	DB	00H
	DB	00H
	DB	00H
	DB	00H
	DB	00H
	DB	00H
	DB	00H
	DB	00H
	DB	00H
	DB	00H
	DB	00H
	DB	00H
	DB	00H
	DB	00H
	DB	00H
	DB	00H
	DB	00H
	DB	00H
	DB	00H
	DB	00H
	DB	00H
	DB	00H
	DB	00H
	DB	00H
	DB	00H
	DB	00H
	DB	00H
	DB	00H
	DB	00H
	DB	00H
	DB	00H
	DB	00H
	DB	00H
	DB	00H
	DB	00H
	DB	00H
	DB	00H
	DB	00H
	DB	00H
	DB	00H
	DB	00H
	DB	00H
	DB	00H
	DB	00H
	DB	00H
	DB	00H
	DB	00H
	DB	00H
	DB	00H
	DB	00H
	DB	00H
	DB	00H
	DB	00H
	DB	00H
	DB	00H
	DB	00H
	DB	00H
	DB	00H
	DB	00H
	DB	00H
	DB	00H
	DB	00H
	DB	00H
	DB	00H
	DB	00H
	DB	00H
	DB	00H
	DB	00H
	DB	00H
	DB	00H
	DB	00H
	DB	00H
	DB	00H
	DB	00H
	DB	00H
	DB	00H
	DB	00H
	DB	00H
	DB	00H
	DB	00H
	DB	00H
	DB	00H
	DB	00H
	DB	00H
	DB	00H
	DB	00H
	DB	00H
	DB	00H
	DB	00H
	DB	00H
	DB	00H
	DB	00H
	DB	00H
	DB	00H
	DB	00H
	DB	00H
	DB	00H
	DB	00H
	DB	00H
	DB	00H
	DB	00H
	DB	00H
	DB	00H
	DB	00H
	DB	00H
	DB	00H
	DB	00H
	DB	00H
	DB	00H
	DB	00H
	DB	00H
	DB	00H
	DB	00H
	DB	00H
	DB	00H
	DB	00H
	DB	00H
	DB	00H
	DB	00H
	DB	00H
	DB	00H
	DB	00H
	DB	00H
	DB	00H
	DB	00H
	DB	00H
	DB	00H
	DB	00H
	DB	00H
	DB	00H
	DB	00H
	DB	00H
	DB	00H
	DB	00H
	DB	00H
	DB	00H
	DB	00H
	DB	00H
	DB	00H
	DB	00H
	DB	00H
	DB	00H
	DB	00H
	DB	00H
	DB	00H
	DB	00H
	DB	00H
	DB	00H
	DB	00H
	DB	00H
	DB	00H
	DB	00H
	DB	00H
	DB	00H
	DB	00H
	DB	00H
	DB	00H
	DB	00H
	DB	00H
	DB	00H
	DB	00H
	DB	00H
	DB	00H
	DB	00H
	DB	00H
	DB	00H
	DB	00H
	DB	00H
	DB	00H
	DB	00H
	DB	00H
	DB	00H
	DB	00H
	DB	00H
	DB	00H
	DB	00H
	DB	00H
	DB	00H
	DB	00H
	DB	00H
	DB	00H
	DB	00H
	DB	00H
	DB	00H
	DB	00H
	DB	00H
	DB	00H
	DB	00H
	DB	00H
	DB	00H
	DB	00H
	DB	00H
	DB	00H
	DB	00H
	DB	00H
	DB	00H
	DB	00H
	DB	00H
	DB	00H
	DB	00H
	DB	00H
	DB	00H
	DB	00H
	DB	00H
	DB	00H
	DB	00H
	DB	00H
	DB	00H
	DB	00H
	DB	00H
	DB	00H
	DB	00H
	DB	00H
	DB	00H
	DB	00H
	DB	00H
	DB	00H
	DB	00H
	DB	00H
	DB	00H
	DB	00H
	DB	00H
	DB	00H
	DB	00H
	DB	00H
	DB	00H
	DB	00H
	DB	00H
	DB	00H
	DB	00H
	DB	00H
	DB	00H
	DB	00H
	DB	00H
	DB	00H
	DB	00H
	DB	00H
	DB	00H
	DB	00H
	DB	00H
	DB	00H
	DB	00H
	DB	00H
	DB	00H
	DB	00H
	DB	00H
	DB	00H
	DB	00H
	DB	00H
	DB	00H
	DB	00H
	DB	00H
	DB	00H
	DB	00H
	DB	00H
	DB	00H
	DB	00H
	DB	00H
	DB	00H
	DB	00H
	DB	00H
	DB	00H
	DB	00H
	DB	00H
	DB	00H
	DB	00H
	DB	00H
	DB	00H
	DB	00H
	DB	00H
	DB	00H
	DB	00H
	DB	00H
	DB	00H
	DB	00H
	DB	00H
	DB	00H
	DB	00H
	DB	00H
	DB	00H
	DB	00H
	DB	00H
	DB	00H
	DB	00H
	DB	00H
	DB	00H
	DB	00H
	DB	00H
	DB	00H
	DB	00H
	DB	00H
	DB	00H
	DB	00H
	DB	00H
	DB	00H
	DB	00H
	DB	00H
	DB	00H
	DB	00H
	DB	00H
	DB	00H
	DB	00H
	DB	00H
	DB	00H
	DB	00H
	DB	00H
	DB	00H
	DB	00H
	DB	00H
	DB	00H
	DB	00H
	DB	00H
	DB	00H
	DB	00H
	DB	00H
	DB	00H
	DB	00H
	DB	00H
	DB	00H
	DB	00H
	DB	00H
	DB	00H
	DB	00H
	DB	00H
	DB	00H
	DB	00H
	DB	00H
	DB	00H
	DB	00H
	DB	00H
	DB	00H
	DB	00H
	DB	00H
	DB	00H
	DB	00H
	DB	00H
	DB	00H
	DB	00H
	DB	00H
	DB	00H
	DB	00H
	DB	00H
	DB	00H
	DB	00H
	DB	00H
	DB	00H
	DB	00H
	DB	00H
	DB	00H
	DB	00H
	DB	00H
	DB	00H
	DB	00H
	DB	00H
	DB	00H
	DB	00H
	DB	00H
	DB	00H
	DB	00H
	DB	00H
	DB	00H
	DB	00H
	DB	00H
	DB	00H
	DB	00H
	DB	00H
	DB	00H
	DB	00H
	DB	00H
	DB	00H
	DB	00H
	DB	00H
	DB	00H
	DB	00H
	DB	00H
	DB	00H
	DB	00H
	DB	00H
	DB	00H
	DB	070H
	DB	05cH
	DB	038H
	DB	071H
	DB	078H
	DB	05cH
	DB	030H
	DB	0ffH
	DB	070H
	DB	060H
	DB	030H
	DB	0ffH
	DB	070H
	DB	060H
	DB	038H
	DB	0ffH
	DB	078H
	DB	05cH
	DB	030H
	DB	0ffH
	DB	070H
	DB	060H
	DB	030H
	DB	010H
	DB	078H
	DB	05cH
	DB	038H
	DB	06dH
	DB	070H
	DB	060H
	DB	030H
	DB	0ffH
	DB	078H
	DB	060H
	DB	038H
	DB	0ffH
	DB	070H
	DB	05cH
	DB	030H
	DB	0ffH
	DB	070H
	DB	060H
	DB	030H
	DB	0dfH
	DB	00H
	DB	00H
	DB	00H
	DB	00H
	DB	00H
	DB	00H
	DB	00H
	DB	00H
	DB	00H
	DB	00H
	DB	00H
	DB	00H
	DB	00H
	DB	00H
	DB	00H
	DB	00H
	DB	00H
	DB	00H
	DB	00H
	DB	00H
	DB	00H
	DB	00H
	DB	00H
	DB	00H
	DB	00H
	DB	00H
	DB	00H
	DB	00H
	DB	00H
	DB	00H
	DB	00H
	DB	00H
	DB	00H
	DB	00H
	DB	00H
	DB	00H
	DB	00H
	DB	00H
	DB	00H
	DB	00H
	DB	00H
	DB	00H
	DB	00H
	DB	00H
	DB	00H
	DB	00H
	DB	00H
	DB	00H
	DB	00H
	DB	00H
	DB	00H
	DB	00H
	DB	00H
	DB	00H
	DB	00H
	DB	00H
	DB	00H
	DB	00H
	DB	00H
	DB	00H
	DB	00H
	DB	00H
	DB	00H
	DB	00H
	DB	00H
	DB	00H
	DB	00H
	DB	00H
	DB	00H
	DB	00H
	DB	00H
	DB	00H
	DB	00H
	DB	00H
	DB	00H
	DB	00H
	DB	00H
	DB	00H
	DB	00H
	DB	00H
	DB	00H
	DB	00H
	DB	00H
	DB	00H
	DB	00H
	DB	00H
	DB	00H
	DB	00H
	DB	00H
	DB	00H
	DB	00H
	DB	00H
	DB	00H
	DB	00H
	DB	00H
	DB	00H
	DB	00H
	DB	00H
	DB	00H
	DB	00H
	DB	00H
	DB	00H
	DB	00H
	DB	00H
	DB	00H
	DB	00H
	DB	00H
	DB	00H
	DB	00H
	DB	00H
	DB	00H
	DB	00H
	DB	00H
	DB	00H
	DB	00H
	DB	00H
	DB	00H
	DB	00H
	DB	00H
	DB	00H
	DB	00H
	DB	00H
	DB	00H
	DB	00H
	DB	00H
	DB	00H
	DB	00H
	DB	00H
	DB	00H
	DB	00H
	DB	00H
	DB	00H
	DB	00H
	DB	00H
	DB	00H
	DB	00H
	DB	00H
	DB	00H
	DB	00H
	DB	00H
	DB	00H
	DB	00H
	DB	00H
	DB	00H
	DB	00H
	DB	00H
	DB	00H
	DB	00H
	DB	00H
	DB	00H
	DB	00H
	DB	00H
	DB	00H
	DB	00H
	DB	00H
	DB	00H
	DB	00H
	DB	00H
	DB	00H
	DB	00H
	DB	00H
	DB	00H
	DB	00H
	DB	00H
	DB	00H
	DB	00H
	DB	00H
	DB	00H
	DB	00H
	DB	00H
	DB	00H
	DB	00H
	DB	00H
	DB	00H
	DB	00H
	DB	00H
	DB	00H
	DB	00H
	DB	00H
	DB	00H
	DB	00H
	DB	00H
	DB	00H
	DB	00H
	DB	00H
	DB	00H
	DB	00H
	DB	00H
	DB	00H
	DB	00H
	DB	00H
	DB	00H
	DB	00H
	DB	00H
	DB	00H
	DB	00H
	DB	00H
	DB	00H
	DB	00H
	DB	00H
	DB	00H
	DB	00H
	DB	00H
	DB	00H
	DB	038H
	DB	020H
	DB	010H
	DB	020H
	DB	038H
	DB	01cH
	DB	08H
	DB	0beH
	DB	038H
	DB	01cH
	DB	010H
	DB	0efH
	DB	038H
	DB	01cH
	DB	08H
	DB	0ffH
	DB	038H
	DB	01cH
	DB	08H
	DB	0ffH
	DB	038H
	DB	01cH
	DB	010H
	DB	0ffH
	DB	038H
	DB	01cH
	DB	08H
	DB	0ffH
	DB	038H
	DB	01cH
	DB	08H
	DB	0ffH
	DB	038H
	DB	01cH
	DB	010H
	DB	0ffH
	DB	038H
	DB	01cH
	DB	08H
	DB	0ffH
	DB	038H
	DB	01cH
	DB	08H
	DB	0ffH
	DB	038H
	DB	01cH
	DB	010H
	DB	0ffH
	DB	038H
	DB	01cH
	DB	08H
	DB	0ffH
	DB	038H
	DB	01cH
	DB	08H
	DB	0ffH
	DB	038H
	DB	01cH
	DB	010H
	DB	0ffH
	DB	038H
	DB	01cH
	DB	08H
	DB	0ffH
	DB	038H
	DB	01cH
	DB	08H
	DB	0ffH
	DB	038H
	DB	01cH
	DB	010H
	DB	0ffH
	DB	038H
	DB	01cH
	DB	08H
	DB	0ffH
	DB	038H
	DB	01cH
	DB	08H
	DB	0ffH
	DB	038H
	DB	01cH
	DB	010H
	DB	0ffH
	DB	038H
	DB	01cH
	DB	08H
	DB	0ffH
	DB	038H
	DB	01cH
	DB	08H
	DB	0ffH
	DB	038H
	DB	01cH
	DB	010H
	DB	0ffH
	DB	038H
	DB	01cH
	DB	08H
	DB	0ffH
	DB	038H
	DB	01cH
	DB	08H
	DB	0ffH
	DB	038H
	DB	01cH
	DB	010H
	DB	0ffH
	DB	038H
	DB	01cH
	DB	08H
	DB	0ffH
	DB	038H
	DB	01cH
	DB	08H
	DB	0ffH
	DB	038H
	DB	01cH
	DB	010H
	DB	0ffH
	DB	038H
	DB	01cH
	DB	08H
	DB	0ffH
	DB	038H
	DB	01cH
	DB	08H
	DB	0ffH
	DB	038H
	DB	01cH
	DB	010H
	DB	0ffH
	DB	038H
	DB	01cH
	DB	08H
	DB	0ffH
	DB	038H
	DB	01cH
	DB	08H
	DB	0ffH
	DB	038H
	DB	01cH
	DB	010H
	DB	0ffH
	DB	038H
	DB	01cH
	DB	08H
	DB	0ffH
	DB	038H
	DB	01cH
	DB	08H
	DB	0ffH
	DB	038H
	DB	01cH
	DB	010H
	DB	0ffH
	DB	038H
	DB	01cH
	DB	010H
	DB	0ffH
	DB	038H
	DB	01cH
	DB	08H
	DB	0ffH
	DB	038H
	DB	01cH
	DB	010H
	DB	0ffH
	DB	038H
	DB	01cH
	DB	08H
	DB	0ffH
	DB	038H
	DB	018H
	DB	010H
	DB	0aeH
	DB	038H
	DB	020H
	DB	08H
	DB	020H
	DB	00H
	DB	00H
	DB	00H
	DB	00H
	DB	00H
	DB	00H
	DB	00H
	DB	00H
	DB	00H
	DB	00H
	DB	00H
	DB	00H
	DB	00H
	DB	00H
	DB	00H
	DB	00H
	DB	078H
	DB	05cH
	DB	030H
	DB	0beH
	DB	070H
	DB	060H
	DB	038H
	DB	0ffH
	DB	078H
	DB	05cH
	DB	030H
	DB	0ffH
	DB	070H
	DB	05cH
	DB	038H
	DB	0ffH
	DB	070H
	DB	060H
	DB	038H
	DB	07dH
	DB	070H
	DB	060H
	DB	030H
	DB	0beH
	DB	078H
	DB	05cH
	DB	038H
	DB	0ffH
	DB	078H
	DB	05cH
	DB	038H
	DB	0ffH
	DB	070H
	DB	060H
	DB	038H
	DB	0ffH
	DB	070H
	DB	060H
	DB	030H
	DB	05dH
	DB	00H
	DB	00H
	DB	00H
	DB	00H
	DB	00H
	DB	00H
	DB	00H
	DB	00H
	DB	00H
	DB	00H
	DB	00H
	DB	00H
	DB	00H
	DB	00H
	DB	00H
	DB	00H
	DB	00H
	DB	00H
	DB	00H
	DB	00H
	DB	00H
	DB	00H
	DB	00H
	DB	00H
	DB	00H
	DB	00H
	DB	00H
	DB	00H
	DB	00H
	DB	00H
	DB	00H
	DB	00H
	DB	00H
	DB	00H
	DB	00H
	DB	00H
	DB	00H
	DB	00H
	DB	00H
	DB	00H
	DB	00H
	DB	00H
	DB	00H
	DB	00H
	DB	00H
	DB	00H
	DB	00H
	DB	00H
	DB	00H
	DB	00H
	DB	00H
	DB	00H
	DB	00H
	DB	00H
	DB	00H
	DB	00H
	DB	00H
	DB	00H
	DB	00H
	DB	00H
	DB	00H
	DB	00H
	DB	00H
	DB	00H
	DB	00H
	DB	00H
	DB	00H
	DB	00H
	DB	00H
	DB	00H
	DB	00H
	DB	00H
	DB	00H
	DB	00H
	DB	00H
	DB	00H
	DB	00H
	DB	00H
	DB	00H
	DB	00H
	DB	00H
	DB	00H
	DB	00H
	DB	00H
	DB	00H
	DB	00H
	DB	00H
	DB	00H
	DB	00H
	DB	00H
	DB	00H
	DB	00H
	DB	00H
	DB	00H
	DB	00H
	DB	00H
	DB	00H
	DB	00H
	DB	00H
	DB	00H
	DB	00H
	DB	00H
	DB	00H
	DB	00H
	DB	00H
	DB	00H
	DB	00H
	DB	00H
	DB	00H
	DB	00H
	DB	00H
	DB	00H
	DB	00H
	DB	00H
	DB	00H
	DB	00H
	DB	00H
	DB	00H
	DB	00H
	DB	00H
	DB	00H
	DB	00H
	DB	00H
	DB	00H
	DB	00H
	DB	00H
	DB	00H
	DB	00H
	DB	00H
	DB	00H
	DB	00H
	DB	00H
	DB	00H
	DB	00H
	DB	00H
	DB	00H
	DB	00H
	DB	00H
	DB	00H
	DB	00H
	DB	00H
	DB	00H
	DB	00H
	DB	00H
	DB	00H
	DB	00H
	DB	00H
	DB	00H
	DB	00H
	DB	00H
	DB	00H
	DB	00H
	DB	00H
	DB	00H
	DB	00H
	DB	00H
	DB	00H
	DB	00H
	DB	00H
	DB	00H
	DB	00H
	DB	00H
	DB	00H
	DB	00H
	DB	00H
	DB	00H
	DB	00H
	DB	00H
	DB	00H
	DB	00H
	DB	00H
	DB	00H
	DB	00H
	DB	00H
	DB	00H
	DB	00H
	DB	00H
	DB	00H
	DB	00H
	DB	00H
	DB	00H
	DB	00H
	DB	00H
	DB	00H
	DB	00H
	DB	00H
	DB	00H
	DB	00H
	DB	00H
	DB	00H
	DB	00H
	DB	00H
	DB	00H
	DB	00H
	DB	00H
	DB	00H
	DB	00H
	DB	00H
	DB	00H
	DB	00H
	DB	038H
	DB	020H
	DB	010H
	DB	020H
	DB	038H
	DB	01cH
	DB	08H
	DB	0efH
	DB	038H
	DB	01cH
	DB	010H
	DB	0ffH
	DB	038H
	DB	01cH
	DB	010H
	DB	0ffH
	DB	038H
	DB	01cH
	DB	08H
	DB	0ffH
	DB	038H
	DB	01cH
	DB	010H
	DB	0ffH
	DB	038H
	DB	018H
	DB	010H
	DB	0ffH
	DB	038H
	DB	01cH
	DB	08H
	DB	0ffH
	DB	038H
	DB	01cH
	DB	010H
	DB	0ffH
	DB	038H
	DB	018H
	DB	010H
	DB	0ffH
	DB	038H
	DB	01cH
	DB	08H
	DB	0ffH
	DB	038H
	DB	01cH
	DB	010H
	DB	0ffH
	DB	038H
	DB	018H
	DB	010H
	DB	0ffH
	DB	038H
	DB	01cH
	DB	08H
	DB	0ffH
	DB	038H
	DB	01cH
	DB	010H
	DB	0ffH
	DB	038H
	DB	018H
	DB	010H
	DB	0ffH
	DB	038H
	DB	01cH
	DB	08H
	DB	0ffH
	DB	038H
	DB	01cH
	DB	010H
	DB	0ffH
	DB	038H
	DB	018H
	DB	010H
	DB	0ffH
	DB	038H
	DB	01cH
	DB	08H
	DB	0ffH
	DB	038H
	DB	01cH
	DB	010H
	DB	0ffH
	DB	038H
	DB	018H
	DB	010H
	DB	0ffH
	DB	038H
	DB	01cH
	DB	08H
	DB	0ffH
	DB	038H
	DB	01cH
	DB	010H
	DB	0ffH
	DB	038H
	DB	018H
	DB	010H
	DB	0ffH
	DB	038H
	DB	01cH
	DB	08H
	DB	0ffH
	DB	038H
	DB	01cH
	DB	010H
	DB	0ffH
	DB	038H
	DB	018H
	DB	010H
	DB	0ffH
	DB	038H
	DB	01cH
	DB	08H
	DB	0ffH
	DB	038H
	DB	01cH
	DB	010H
	DB	0ffH
	DB	038H
	DB	018H
	DB	010H
	DB	0ffH
	DB	038H
	DB	01cH
	DB	08H
	DB	0ffH
	DB	038H
	DB	01cH
	DB	010H
	DB	0ffH
	DB	038H
	DB	018H
	DB	010H
	DB	0ffH
	DB	038H
	DB	01cH
	DB	08H
	DB	0ffH
	DB	038H
	DB	01cH
	DB	010H
	DB	0ffH
	DB	038H
	DB	018H
	DB	010H
	DB	0ffH
	DB	038H
	DB	01cH
	DB	08H
	DB	0ffH
	DB	038H
	DB	01cH
	DB	010H
	DB	0ffH
	DB	038H
	DB	018H
	DB	08H
	DB	0ffH
	DB	038H
	DB	01cH
	DB	08H
	DB	0ffH
	DB	038H
	DB	01cH
	DB	010H
	DB	0ffH
	DB	038H
	DB	01cH
	DB	08H
	DB	0ffH
	DB	038H
	DB	01cH
	DB	010H
	DB	0ffH
	DB	038H
	DB	01cH
	DB	08H
	DB	0ffH
	DB	038H
	DB	01cH
	DB	010H
	DB	0efH
	DB	038H
	DB	020H
	DB	08H
	DB	020H
	DB	00H
	DB	00H
	DB	00H
	DB	00H
	DB	00H
	DB	00H
	DB	00H
	DB	00H
	DB	00H
	DB	00H
	DB	00H
	DB	00H
	DB	078H
	DB	060H
	DB	038H
	DB	06dH
	DB	070H
	DB	05cH
	DB	038H
	DB	0ffH
	DB	078H
	DB	060H
	DB	030H
	DB	0ffH
	DB	078H
	DB	060H
	DB	030H
	DB	0ffH
	DB	070H
	DB	05cH
	DB	038H
	DB	0beH
	DB	070H
	DB	05cH
	DB	030H
	DB	0efH
	DB	078H
	DB	060H
	DB	030H
	DB	0ffH
	DB	070H
	DB	05cH
	DB	038H
	DB	0ffH
	DB	078H
	DB	05cH
	DB	030H
	DB	0ffH
	DB	078H
	DB	05cH
	DB	038H
	DB	030H
	DB	00H
	DB	00H
	DB	00H
	DB	00H
	DB	00H
	DB	00H
	DB	00H
	DB	00H
	DB	00H
	DB	00H
	DB	00H
	DB	00H
	DB	00H
	DB	00H
	DB	00H
	DB	00H
	DB	00H
	DB	00H
	DB	00H
	DB	00H
	DB	00H
	DB	00H
	DB	00H
	DB	00H
	DB	00H
	DB	00H
	DB	00H
	DB	00H
	DB	00H
	DB	00H
	DB	00H
	DB	00H
	DB	00H
	DB	00H
	DB	00H
	DB	00H
	DB	00H
	DB	00H
	DB	00H
	DB	00H
	DB	00H
	DB	00H
	DB	00H
	DB	00H
	DB	00H
	DB	00H
	DB	00H
	DB	00H
	DB	00H
	DB	00H
	DB	00H
	DB	00H
	DB	00H
	DB	00H
	DB	00H
	DB	00H
	DB	00H
	DB	00H
	DB	00H
	DB	00H
	DB	00H
	DB	00H
	DB	00H
	DB	00H
	DB	00H
	DB	00H
	DB	00H
	DB	00H
	DB	00H
	DB	00H
	DB	00H
	DB	00H
	DB	00H
	DB	00H
	DB	00H
	DB	00H
	DB	00H
	DB	00H
	DB	00H
	DB	00H
	DB	00H
	DB	00H
	DB	00H
	DB	00H
	DB	00H
	DB	00H
	DB	00H
	DB	00H
	DB	00H
	DB	00H
	DB	00H
	DB	00H
	DB	00H
	DB	00H
	DB	00H
	DB	00H
	DB	00H
	DB	00H
	DB	00H
	DB	00H
	DB	00H
	DB	00H
	DB	00H
	DB	00H
	DB	00H
	DB	00H
	DB	00H
	DB	00H
	DB	00H
	DB	00H
	DB	00H
	DB	00H
	DB	00H
	DB	00H
	DB	00H
	DB	00H
	DB	00H
	DB	00H
	DB	00H
	DB	00H
	DB	00H
	DB	00H
	DB	00H
	DB	00H
	DB	00H
	DB	00H
	DB	00H
	DB	00H
	DB	00H
	DB	00H
	DB	00H
	DB	00H
	DB	00H
	DB	00H
	DB	00H
	DB	00H
	DB	00H
	DB	00H
	DB	00H
	DB	00H
	DB	00H
	DB	00H
	DB	00H
	DB	00H
	DB	00H
	DB	00H
	DB	00H
	DB	00H
	DB	00H
	DB	00H
	DB	00H
	DB	00H
	DB	00H
	DB	00H
	DB	00H
	DB	00H
	DB	00H
	DB	00H
	DB	00H
	DB	00H
	DB	00H
	DB	00H
	DB	00H
	DB	00H
	DB	00H
	DB	00H
	DB	00H
	DB	00H
	DB	00H
	DB	00H
	DB	00H
	DB	00H
	DB	00H
	DB	00H
	DB	00H
	DB	00H
	DB	00H
	DB	00H
	DB	00H
	DB	00H
	DB	00H
	DB	00H
	DB	00H
	DB	00H
	DB	00H
	DB	00H
	DB	00H
	DB	00H
	DB	00H
	DB	00H
	DB	00H
	DB	00H
	DB	00H
	DB	00H
	DB	00H
	DB	00H
	DB	00H
	DB	00H
	DB	00H
	DB	00H
	DB	038H
	DB	01cH
	DB	08H
	DB	0aeH
	DB	038H
	DB	01cH
	DB	010H
	DB	0ffH
	DB	038H
	DB	01cH
	DB	08H
	DB	0ffH
	DB	038H
	DB	018H
	DB	08H
	DB	0ffH
	DB	038H
	DB	01cH
	DB	010H
	DB	0ffH
	DB	038H
	DB	01cH
	DB	08H
	DB	0ffH
	DB	038H
	DB	018H
	DB	08H
	DB	0ffH
	DB	038H
	DB	01cH
	DB	010H
	DB	0ffH
	DB	038H
	DB	01cH
	DB	08H
	DB	0ffH
	DB	038H
	DB	018H
	DB	08H
	DB	0ffH
	DB	038H
	DB	01cH
	DB	010H
	DB	0ffH
	DB	038H
	DB	01cH
	DB	08H
	DB	0ffH
	DB	038H
	DB	018H
	DB	08H
	DB	0ffH
	DB	038H
	DB	01cH
	DB	010H
	DB	0ffH
	DB	038H
	DB	01cH
	DB	08H
	DB	0ffH
	DB	038H
	DB	018H
	DB	08H
	DB	0ffH
	DB	038H
	DB	01cH
	DB	010H
	DB	0ffH
	DB	038H
	DB	01cH
	DB	08H
	DB	0ffH
	DB	038H
	DB	018H
	DB	08H
	DB	0ffH
	DB	038H
	DB	01cH
	DB	010H
	DB	0ffH
	DB	038H
	DB	01cH
	DB	08H
	DB	0ffH
	DB	038H
	DB	018H
	DB	08H
	DB	0ffH
	DB	038H
	DB	01cH
	DB	010H
	DB	0ffH
	DB	038H
	DB	01cH
	DB	08H
	DB	0ffH
	DB	038H
	DB	018H
	DB	08H
	DB	0ffH
	DB	038H
	DB	01cH
	DB	010H
	DB	0ffH
	DB	038H
	DB	01cH
	DB	08H
	DB	0ffH
	DB	038H
	DB	018H
	DB	08H
	DB	0ffH
	DB	038H
	DB	01cH
	DB	010H
	DB	0ffH
	DB	038H
	DB	01cH
	DB	08H
	DB	0ffH
	DB	038H
	DB	018H
	DB	08H
	DB	0ffH
	DB	038H
	DB	01cH
	DB	010H
	DB	0ffH
	DB	038H
	DB	01cH
	DB	08H
	DB	0ffH
	DB	038H
	DB	018H
	DB	08H
	DB	0ffH
	DB	038H
	DB	01cH
	DB	010H
	DB	0ffH
	DB	038H
	DB	01cH
	DB	08H
	DB	0ffH
	DB	038H
	DB	018H
	DB	08H
	DB	0ffH
	DB	038H
	DB	01cH
	DB	010H
	DB	0ffH
	DB	038H
	DB	01cH
	DB	010H
	DB	0ffH
	DB	038H
	DB	018H
	DB	08H
	DB	0ffH
	DB	038H
	DB	01cH
	DB	010H
	DB	0ffH
	DB	038H
	DB	018H
	DB	08H
	DB	0ffH
	DB	038H
	DB	018H
	DB	010H
	DB	0ffH
	DB	038H
	DB	01cH
	DB	08H
	DB	0ffH
	DB	038H
	DB	01cH
	DB	08H
	DB	0ffH
	DB	038H
	DB	01cH
	DB	010H
	DB	0ffH
	DB	038H
	DB	01cH
	DB	08H
	DB	0beH
	DB	00H
	DB	00H
	DB	00H
	DB	00H
	DB	00H
	DB	00H
	DB	00H
	DB	00H
	DB	00H
	DB	00H
	DB	00H
	DB	00H
	DB	078H
	DB	060H
	DB	038H
	DB	020H
	DB	070H
	DB	05cH
	DB	030H
	DB	0ffH
	DB	078H
	DB	060H
	DB	038H
	DB	0ffH
	DB	078H
	DB	05cH
	DB	030H
	DB	0ffH
	DB	070H
	DB	05cH
	DB	030H
	DB	0dfH
	DB	078H
	DB	05cH
	DB	038H
	DB	0ffH
	DB	070H
	DB	060H
	DB	030H
	DB	0ffH
	DB	070H
	DB	060H
	DB	030H
	DB	0ffH
	DB	078H
	DB	05cH
	DB	038H
	DB	0ffH
	DB	00H
	DB	00H
	DB	00H
	DB	00H
	DB	00H
	DB	00H
	DB	00H
	DB	00H
	DB	00H
	DB	00H
	DB	00H
	DB	00H
	DB	00H
	DB	00H
	DB	00H
	DB	00H
	DB	00H
	DB	00H
	DB	00H
	DB	00H
	DB	00H
	DB	00H
	DB	00H
	DB	00H
	DB	00H
	DB	00H
	DB	00H
	DB	00H
	DB	00H
	DB	00H
	DB	00H
	DB	00H
	DB	00H
	DB	00H
	DB	00H
	DB	00H
	DB	00H
	DB	00H
	DB	00H
	DB	00H
	DB	00H
	DB	00H
	DB	00H
	DB	00H
	DB	00H
	DB	00H
	DB	00H
	DB	00H
	DB	00H
	DB	00H
	DB	00H
	DB	00H
	DB	00H
	DB	00H
	DB	00H
	DB	00H
	DB	00H
	DB	00H
	DB	00H
	DB	00H
	DB	00H
	DB	00H
	DB	00H
	DB	00H
	DB	00H
	DB	00H
	DB	00H
	DB	00H
	DB	00H
	DB	00H
	DB	00H
	DB	00H
	DB	00H
	DB	00H
	DB	00H
	DB	00H
	DB	00H
	DB	00H
	DB	00H
	DB	00H
	DB	00H
	DB	00H
	DB	00H
	DB	00H
	DB	00H
	DB	00H
	DB	00H
	DB	00H
	DB	00H
	DB	00H
	DB	00H
	DB	00H
	DB	00H
	DB	00H
	DB	00H
	DB	00H
	DB	00H
	DB	00H
	DB	00H
	DB	00H
	DB	00H
	DB	00H
	DB	00H
	DB	00H
	DB	00H
	DB	00H
	DB	00H
	DB	00H
	DB	00H
	DB	00H
	DB	00H
	DB	00H
	DB	00H
	DB	00H
	DB	00H
	DB	00H
	DB	00H
	DB	00H
	DB	00H
	DB	00H
	DB	00H
	DB	00H
	DB	00H
	DB	00H
	DB	00H
	DB	00H
	DB	00H
	DB	00H
	DB	00H
	DB	00H
	DB	00H
	DB	00H
	DB	00H
	DB	00H
	DB	00H
	DB	00H
	DB	00H
	DB	00H
	DB	00H
	DB	00H
	DB	00H
	DB	00H
	DB	00H
	DB	00H
	DB	00H
	DB	00H
	DB	00H
	DB	00H
	DB	00H
	DB	00H
	DB	00H
	DB	00H
	DB	00H
	DB	00H
	DB	00H
	DB	00H
	DB	00H
	DB	00H
	DB	00H
	DB	00H
	DB	00H
	DB	00H
	DB	00H
	DB	00H
	DB	00H
	DB	00H
	DB	00H
	DB	00H
	DB	00H
	DB	00H
	DB	00H
	DB	00H
	DB	00H
	DB	00H
	DB	00H
	DB	00H
	DB	00H
	DB	00H
	DB	00H
	DB	00H
	DB	00H
	DB	00H
	DB	00H
	DB	00H
	DB	00H
	DB	00H
	DB	00H
	DB	00H
	DB	00H
	DB	00H
	DB	00H
	DB	00H
	DB	00H
	DB	00H
	DB	00H
	DB	00H
	DB	00H
	DB	00H
	DB	00H
	DB	00H
	DB	00H
	DB	00H
	DB	00H
	DB	00H
	DB	038H
	DB	01cH
	DB	010H
	DB	0ffH
	DB	038H
	DB	01cH
	DB	010H
	DB	0ffH
	DB	038H
	DB	018H
	DB	08H
	DB	0ffH
	DB	030H
	DB	01cH
	DB	010H
	DB	0ffH
	DB	038H
	DB	01cH
	DB	010H
	DB	0ffH
	DB	038H
	DB	01cH
	DB	08H
	DB	0ffH
	DB	030H
	DB	01cH
	DB	010H
	DB	0ffH
	DB	038H
	DB	01cH
	DB	010H
	DB	0ffH
	DB	038H
	DB	01cH
	DB	08H
	DB	0ffH
	DB	030H
	DB	01cH
	DB	010H
	DB	0ffH
	DB	038H
	DB	01cH
	DB	010H
	DB	0ffH
	DB	038H
	DB	01cH
	DB	08H
	DB	0ffH
	DB	030H
	DB	01cH
	DB	010H
	DB	0ffH
	DB	038H
	DB	01cH
	DB	010H
	DB	0ffH
	DB	038H
	DB	01cH
	DB	08H
	DB	0ffH
	DB	030H
	DB	01cH
	DB	010H
	DB	0ffH
	DB	038H
	DB	01cH
	DB	010H
	DB	0ffH
	DB	038H
	DB	01cH
	DB	08H
	DB	0ffH
	DB	030H
	DB	01cH
	DB	010H
	DB	0ffH
	DB	038H
	DB	01cH
	DB	010H
	DB	0ffH
	DB	038H
	DB	01cH
	DB	08H
	DB	0ffH
	DB	030H
	DB	01cH
	DB	010H
	DB	0ffH
	DB	038H
	DB	01cH
	DB	010H
	DB	0ffH
	DB	038H
	DB	01cH
	DB	08H
	DB	0ffH
	DB	030H
	DB	01cH
	DB	010H
	DB	0ffH
	DB	038H
	DB	01cH
	DB	010H
	DB	0ffH
	DB	038H
	DB	01cH
	DB	08H
	DB	0ffH
	DB	030H
	DB	01cH
	DB	010H
	DB	0ffH
	DB	038H
	DB	01cH
	DB	010H
	DB	0ffH
	DB	038H
	DB	01cH
	DB	08H
	DB	0ffH
	DB	030H
	DB	01cH
	DB	010H
	DB	0ffH
	DB	038H
	DB	01cH
	DB	010H
	DB	0ffH
	DB	038H
	DB	01cH
	DB	08H
	DB	0ffH
	DB	030H
	DB	01cH
	DB	010H
	DB	0ffH
	DB	038H
	DB	01cH
	DB	010H
	DB	0ffH
	DB	038H
	DB	01cH
	DB	08H
	DB	0ffH
	DB	030H
	DB	01cH
	DB	010H
	DB	0ffH
	DB	038H
	DB	01cH
	DB	08H
	DB	0ffH
	DB	038H
	DB	01cH
	DB	08H
	DB	0ffH
	DB	030H
	DB	01cH
	DB	010H
	DB	0ffH
	DB	038H
	DB	01cH
	DB	010H
	DB	0ffH
	DB	038H
	DB	01cH
	DB	08H
	DB	0ffH
	DB	038H
	DB	01cH
	DB	010H
	DB	0ffH
	DB	030H
	DB	018H
	DB	010H
	DB	0ffH
	DB	038H
	DB	01cH
	DB	08H
	DB	0ffH
	DB	038H
	DB	018H
	DB	010H
	DB	0ffH
	DB	030H
	DB	01cH
	DB	08H
	DB	0efH
	DB	00H
	DB	00H
	DB	00H
	DB	00H
	DB	00H
	DB	00H
	DB	00H
	DB	00H
	DB	00H
	DB	00H
	DB	00H
	DB	00H
	DB	00H
	DB	00H
	DB	00H
	DB	00H
	DB	070H
	DB	060H
	DB	038H
	DB	0ffH
	DB	070H
	DB	05cH
	DB	030H
	DB	0ffH
	DB	078H
	DB	060H
	DB	038H
	DB	0ffH
	DB	070H
	DB	05cH
	DB	038H
	DB	0ffH
	DB	070H
	DB	05cH
	DB	038H
	DB	0ffH
	DB	078H
	DB	060H
	DB	038H
	DB	0ffH
	DB	078H
	DB	060H
	DB	030H
	DB	0ffH
	DB	070H
	DB	05cH
	DB	038H
	DB	0ffH
	DB	00H
	DB	00H
	DB	00H
	DB	00H
	DB	00H
	DB	00H
	DB	00H
	DB	00H
	DB	00H
	DB	00H
	DB	00H
	DB	00H
	DB	00H
	DB	00H
	DB	00H
	DB	00H
	DB	00H
	DB	00H
	DB	00H
	DB	00H
	DB	00H
	DB	00H
	DB	00H
	DB	00H
	DB	00H
	DB	00H
	DB	00H
	DB	00H
	DB	00H
	DB	00H
	DB	00H
	DB	00H
	DB	00H
	DB	00H
	DB	00H
	DB	00H
	DB	00H
	DB	00H
	DB	00H
	DB	00H
	DB	00H
	DB	00H
	DB	00H
	DB	00H
	DB	00H
	DB	00H
	DB	00H
	DB	00H
	DB	00H
	DB	00H
	DB	00H
	DB	00H
	DB	00H
	DB	00H
	DB	00H
	DB	00H
	DB	00H
	DB	00H
	DB	00H
	DB	00H
	DB	00H
	DB	00H
	DB	00H
	DB	00H
	DB	00H
	DB	00H
	DB	00H
	DB	00H
	DB	00H
	DB	00H
	DB	00H
	DB	00H
	DB	00H
	DB	00H
	DB	00H
	DB	00H
	DB	00H
	DB	00H
	DB	00H
	DB	00H
	DB	00H
	DB	00H
	DB	00H
	DB	00H
	DB	00H
	DB	00H
	DB	00H
	DB	00H
	DB	00H
	DB	00H
	DB	00H
	DB	00H
	DB	00H
	DB	00H
	DB	00H
	DB	00H
	DB	00H
	DB	00H
	DB	00H
	DB	00H
	DB	00H
	DB	00H
	DB	00H
	DB	00H
	DB	00H
	DB	00H
	DB	00H
	DB	00H
	DB	00H
	DB	00H
	DB	00H
	DB	00H
	DB	00H
	DB	00H
	DB	00H
	DB	00H
	DB	00H
	DB	00H
	DB	00H
	DB	00H
	DB	00H
	DB	00H
	DB	00H
	DB	00H
	DB	00H
	DB	00H
	DB	00H
	DB	00H
	DB	00H
	DB	00H
	DB	00H
	DB	00H
	DB	00H
	DB	00H
	DB	00H
	DB	00H
	DB	00H
	DB	00H
	DB	00H
	DB	00H
	DB	00H
	DB	00H
	DB	00H
	DB	00H
	DB	00H
	DB	00H
	DB	00H
	DB	00H
	DB	00H
	DB	00H
	DB	00H
	DB	00H
	DB	00H
	DB	00H
	DB	00H
	DB	00H
	DB	00H
	DB	00H
	DB	00H
	DB	00H
	DB	00H
	DB	00H
	DB	00H
	DB	00H
	DB	00H
	DB	00H
	DB	00H
	DB	00H
	DB	00H
	DB	00H
	DB	00H
	DB	00H
	DB	00H
	DB	00H
	DB	00H
	DB	00H
	DB	00H
	DB	00H
	DB	00H
	DB	00H
	DB	00H
	DB	00H
	DB	00H
	DB	00H
	DB	00H
	DB	00H
	DB	00H
	DB	00H
	DB	00H
	DB	00H
	DB	00H
	DB	00H
	DB	00H
	DB	00H
	DB	00H
	DB	00H
	DB	00H
	DB	00H
	DB	00H
	DB	00H
	DB	00H
	DB	00H
	DB	00H
	DB	00H
	DB	038H
	DB	01cH
	DB	08H
	DB	0ffH
	DB	038H
	DB	01cH
	DB	08H
	DB	0ffH
	DB	038H
	DB	01cH
	DB	010H
	DB	0ffH
	DB	038H
	DB	018H
	DB	08H
	DB	0ffH
	DB	038H
	DB	01cH
	DB	08H
	DB	0ffH
	DB	038H
	DB	018H
	DB	010H
	DB	0ffH
	DB	038H
	DB	01cH
	DB	08H
	DB	0ffH
	DB	038H
	DB	018H
	DB	08H
	DB	0ffH
	DB	038H
	DB	01cH
	DB	010H
	DB	0ffH
	DB	038H
	DB	01cH
	DB	08H
	DB	0ffH
	DB	038H
	DB	018H
	DB	08H
	DB	0ffH
	DB	038H
	DB	01cH
	DB	010H
	DB	0ffH
	DB	038H
	DB	018H
	DB	08H
	DB	0ffH
	DB	038H
	DB	01cH
	DB	08H
	DB	0ffH
	DB	038H
	DB	018H
	DB	010H
	DB	0ffH
	DB	038H
	DB	01cH
	DB	08H
	DB	0ffH
	DB	038H
	DB	01cH
	DB	08H
	DB	0ffH
	DB	038H
	DB	018H
	DB	010H
	DB	0ffH
	DB	038H
	DB	01cH
	DB	08H
	DB	0ffH
	DB	038H
	DB	018H
	DB	08H
	DB	0ffH
	DB	038H
	DB	01cH
	DB	010H
	DB	0ffH
	DB	038H
	DB	01cH
	DB	08H
	DB	0ffH
	DB	038H
	DB	018H
	DB	08H
	DB	0ffH
	DB	038H
	DB	01cH
	DB	010H
	DB	0ffH
	DB	038H
	DB	01cH
	DB	08H
	DB	0ffH
	DB	038H
	DB	018H
	DB	08H
	DB	0ffH
	DB	038H
	DB	01cH
	DB	010H
	DB	0ffH
	DB	038H
	DB	01cH
	DB	08H
	DB	0ffH
	DB	038H
	DB	018H
	DB	08H
	DB	0ffH
	DB	038H
	DB	01cH
	DB	010H
	DB	0ffH
	DB	038H
	DB	018H
	DB	08H
	DB	0ffH
	DB	038H
	DB	01cH
	DB	08H
	DB	0ffH
	DB	038H
	DB	018H
	DB	010H
	DB	0ffH
	DB	038H
	DB	01cH
	DB	08H
	DB	0ffH
	DB	038H
	DB	01cH
	DB	08H
	DB	0ffH
	DB	038H
	DB	018H
	DB	010H
	DB	0ffH
	DB	038H
	DB	01cH
	DB	010H
	DB	0ffH
	DB	038H
	DB	018H
	DB	08H
	DB	0ffH
	DB	038H
	DB	01cH
	DB	010H
	DB	0ffH
	DB	038H
	DB	01cH
	DB	08H
	DB	0ffH
	DB	038H
	DB	018H
	DB	08H
	DB	0ffH
	DB	038H
	DB	01cH
	DB	010H
	DB	0ffH
	DB	038H
	DB	01cH
	DB	08H
	DB	0ffH
	DB	038H
	DB	01cH
	DB	08H
	DB	0ffH
	DB	038H
	DB	01cH
	DB	010H
	DB	0ffH
	DB	038H
	DB	01cH
	DB	010H
	DB	0ffH
	DB	038H
	DB	01cH
	DB	08H
	DB	0ffH
	DB	00H
	DB	00H
	DB	00H
	DB	00H
	DB	00H
	DB	00H
	DB	00H
	DB	00H
	DB	00H
	DB	00H
	DB	00H
	DB	00H
	DB	00H
	DB	00H
	DB	00H
	DB	00H
	DB	078H
	DB	05cH
	DB	030H
	DB	0ffH
	DB	070H
	DB	060H
	DB	038H
	DB	0ffH
	DB	078H
	DB	060H
	DB	030H
	DB	0ffH
	DB	070H
	DB	05cH
	DB	030H
	DB	0ffH
	DB	070H
	DB	05cH
	DB	030H
	DB	0ffH
	DB	078H
	DB	05cH
	DB	030H
	DB	0ffH
	DB	070H
	DB	060H
	DB	038H
	DB	0ffH
	DB	078H
	DB	05cH
	DB	030H
	DB	0ffH
	DB	00H
	DB	00H
	DB	00H
	DB	00H
	DB	00H
	DB	00H
	DB	00H
	DB	00H
	DB	00H
	DB	00H
	DB	00H
	DB	00H
	DB	00H
	DB	00H
	DB	00H
	DB	00H
	DB	00H
	DB	00H
	DB	00H
	DB	00H
	DB	00H
	DB	00H
	DB	00H
	DB	00H
	DB	00H
	DB	00H
	DB	00H
	DB	00H
	DB	00H
	DB	00H
	DB	00H
	DB	00H
	DB	00H
	DB	00H
	DB	00H
	DB	00H
	DB	00H
	DB	00H
	DB	00H
	DB	00H
	DB	00H
	DB	00H
	DB	00H
	DB	00H
	DB	00H
	DB	00H
	DB	00H
	DB	00H
	DB	00H
	DB	00H
	DB	00H
	DB	00H
	DB	00H
	DB	00H
	DB	00H
	DB	00H
	DB	00H
	DB	00H
	DB	00H
	DB	00H
	DB	00H
	DB	00H
	DB	00H
	DB	00H
	DB	00H
	DB	00H
	DB	00H
	DB	00H
	DB	00H
	DB	00H
	DB	00H
	DB	00H
	DB	00H
	DB	00H
	DB	00H
	DB	00H
	DB	00H
	DB	00H
	DB	00H
	DB	00H
	DB	00H
	DB	00H
	DB	00H
	DB	00H
	DB	00H
	DB	00H
	DB	00H
	DB	00H
	DB	00H
	DB	00H
	DB	00H
	DB	00H
	DB	00H
	DB	00H
	DB	00H
	DB	00H
	DB	00H
	DB	00H
	DB	00H
	DB	00H
	DB	00H
	DB	00H
	DB	00H
	DB	00H
	DB	00H
	DB	00H
	DB	00H
	DB	00H
	DB	00H
	DB	00H
	DB	00H
	DB	00H
	DB	00H
	DB	00H
	DB	00H
	DB	00H
	DB	00H
	DB	00H
	DB	00H
	DB	00H
	DB	00H
	DB	00H
	DB	00H
	DB	00H
	DB	00H
	DB	00H
	DB	00H
	DB	00H
	DB	00H
	DB	00H
	DB	00H
	DB	00H
	DB	00H
	DB	00H
	DB	00H
	DB	00H
	DB	00H
	DB	00H
	DB	00H
	DB	00H
	DB	00H
	DB	00H
	DB	00H
	DB	00H
	DB	00H
	DB	00H
	DB	00H
	DB	00H
	DB	00H
	DB	00H
	DB	00H
	DB	00H
	DB	00H
	DB	00H
	DB	00H
	DB	00H
	DB	00H
	DB	00H
	DB	00H
	DB	00H
	DB	00H
	DB	00H
	DB	00H
	DB	00H
	DB	00H
	DB	00H
	DB	00H
	DB	00H
	DB	00H
	DB	00H
	DB	00H
	DB	00H
	DB	00H
	DB	00H
	DB	00H
	DB	00H
	DB	00H
	DB	00H
	DB	00H
	DB	00H
	DB	00H
	DB	00H
	DB	00H
	DB	00H
	DB	00H
	DB	00H
	DB	00H
	DB	00H
	DB	00H
	DB	00H
	DB	00H
	DB	00H
	DB	00H
	DB	00H
	DB	00H
	DB	00H
	DB	00H
	DB	00H
	DB	00H
	DB	00H
	DB	00H
	DB	00H
	DB	00H
	DB	00H
	DB	038H
	DB	01cH
	DB	08H
	DB	0ffH
	DB	038H
	DB	018H
	DB	010H
	DB	0ffH
	DB	038H
	DB	01cH
	DB	010H
	DB	0ffH
	DB	038H
	DB	01cH
	DB	08H
	DB	0ffH
	DB	038H
	DB	01cH
	DB	010H
	DB	0ffH
	DB	038H
	DB	01cH
	DB	010H
	DB	0ffH
	DB	038H
	DB	018H
	DB	08H
	DB	0ffH
	DB	038H
	DB	01cH
	DB	010H
	DB	0ffH
	DB	038H
	DB	01cH
	DB	010H
	DB	0ffH
	DB	038H
	DB	018H
	DB	08H
	DB	0ffH
	DB	038H
	DB	01cH
	DB	010H
	DB	0ffH
	DB	038H
	DB	01cH
	DB	010H
	DB	0ffH
	DB	038H
	DB	01cH
	DB	08H
	DB	0ffH
	DB	038H
	DB	01cH
	DB	010H
	DB	0ffH
	DB	038H
	DB	018H
	DB	010H
	DB	0ffH
	DB	038H
	DB	01cH
	DB	08H
	DB	0ffH
	DB	038H
	DB	01cH
	DB	010H
	DB	0ffH
	DB	038H
	DB	018H
	DB	010H
	DB	0ffH
	DB	038H
	DB	01cH
	DB	08H
	DB	0ffH
	DB	038H
	DB	01cH
	DB	010H
	DB	0ffH
	DB	038H
	DB	018H
	DB	010H
	DB	0ffH
	DB	038H
	DB	01cH
	DB	08H
	DB	0ffH
	DB	038H
	DB	01cH
	DB	010H
	DB	0ffH
	DB	038H
	DB	018H
	DB	010H
	DB	0ffH
	DB	038H
	DB	01cH
	DB	08H
	DB	0ffH
	DB	038H
	DB	01cH
	DB	010H
	DB	0ffH
	DB	038H
	DB	018H
	DB	010H
	DB	0ffH
	DB	038H
	DB	01cH
	DB	08H
	DB	0ffH
	DB	038H
	DB	01cH
	DB	010H
	DB	0ffH
	DB	038H
	DB	018H
	DB	010H
	DB	0ffH
	DB	038H
	DB	01cH
	DB	08H
	DB	0ffH
	DB	038H
	DB	01cH
	DB	010H
	DB	0ffH
	DB	038H
	DB	01cH
	DB	010H
	DB	0ffH
	DB	038H
	DB	018H
	DB	08H
	DB	0ffH
	DB	038H
	DB	01cH
	DB	010H
	DB	0ffH
	DB	038H
	DB	01cH
	DB	08H
	DB	0ffH
	DB	038H
	DB	018H
	DB	08H
	DB	0ffH
	DB	038H
	DB	01cH
	DB	010H
	DB	0ffH
	DB	038H
	DB	01cH
	DB	010H
	DB	0ffH
	DB	038H
	DB	018H
	DB	08H
	DB	0ffH
	DB	030H
	DB	01cH
	DB	010H
	DB	0ffH
	DB	038H
	DB	01cH
	DB	010H
	DB	0ffH
	DB	038H
	DB	018H
	DB	08H
	DB	0ffH
	DB	038H
	DB	01cH
	DB	08H
	DB	0ffH
	DB	038H
	DB	01cH
	DB	010H
	DB	0ffH
	DB	038H
	DB	018H
	DB	08H
	DB	0ffH
	DB	038H
	DB	01cH
	DB	010H
	DB	0ffH
	DB	00H
	DB	00H
	DB	00H
	DB	00H
	DB	00H
	DB	00H
	DB	00H
	DB	00H
	DB	00H
	DB	00H
	DB	00H
	DB	00H
	DB	00H
	DB	00H
	DB	00H
	DB	00H
	DB	078H
	DB	05cH
	DB	038H
	DB	0ffH
	DB	070H
	DB	060H
	DB	030H
	DB	0ffH
	DB	078H
	DB	05cH
	DB	038H
	DB	0ffH
	DB	078H
	DB	05cH
	DB	030H
	DB	0ffH
	DB	078H
	DB	060H
	DB	030H
	DB	0ffH
	DB	070H
	DB	05cH
	DB	038H
	DB	0ffH
	DB	070H
	DB	060H
	DB	038H
	DB	0ffH
	DB	078H
	DB	060H
	DB	030H
	DB	0ffH
	DB	00H
	DB	00H
	DB	00H
	DB	00H
	DB	00H
	DB	00H
	DB	00H
	DB	00H
	DB	00H
	DB	00H
	DB	00H
	DB	00H
	DB	00H
	DB	00H
	DB	00H
	DB	00H
	DB	00H
	DB	00H
	DB	00H
	DB	00H
	DB	00H
	DB	00H
	DB	00H
	DB	00H
	DB	00H
	DB	00H
	DB	00H
	DB	00H
	DB	00H
	DB	00H
	DB	00H
	DB	00H
	DB	00H
	DB	00H
	DB	00H
	DB	00H
	DB	00H
	DB	00H
	DB	00H
	DB	00H
	DB	00H
	DB	00H
	DB	00H
	DB	00H
	DB	00H
	DB	00H
	DB	00H
	DB	00H
	DB	00H
	DB	00H
	DB	00H
	DB	00H
	DB	00H
	DB	00H
	DB	00H
	DB	00H
	DB	00H
	DB	00H
	DB	00H
	DB	00H
	DB	00H
	DB	00H
	DB	00H
	DB	00H
	DB	00H
	DB	00H
	DB	00H
	DB	00H
	DB	00H
	DB	00H
	DB	00H
	DB	00H
	DB	00H
	DB	00H
	DB	00H
	DB	00H
	DB	00H
	DB	00H
	DB	00H
	DB	00H
	DB	00H
	DB	00H
	DB	00H
	DB	00H
	DB	00H
	DB	00H
	DB	00H
	DB	00H
	DB	00H
	DB	00H
	DB	00H
	DB	00H
	DB	00H
	DB	00H
	DB	00H
	DB	00H
	DB	00H
	DB	00H
	DB	00H
	DB	00H
	DB	00H
	DB	00H
	DB	00H
	DB	00H
	DB	00H
	DB	00H
	DB	00H
	DB	00H
	DB	00H
	DB	00H
	DB	00H
	DB	00H
	DB	00H
	DB	00H
	DB	00H
	DB	00H
	DB	00H
	DB	00H
	DB	00H
	DB	00H
	DB	00H
	DB	00H
	DB	00H
	DB	00H
	DB	00H
	DB	00H
	DB	00H
	DB	00H
	DB	00H
	DB	00H
	DB	00H
	DB	00H
	DB	00H
	DB	00H
	DB	00H
	DB	00H
	DB	00H
	DB	00H
	DB	00H
	DB	00H
	DB	00H
	DB	00H
	DB	00H
	DB	00H
	DB	00H
	DB	00H
	DB	00H
	DB	00H
	DB	00H
	DB	00H
	DB	00H
	DB	00H
	DB	00H
	DB	00H
	DB	00H
	DB	00H
	DB	00H
	DB	00H
	DB	00H
	DB	00H
	DB	00H
	DB	00H
	DB	00H
	DB	00H
	DB	00H
	DB	00H
	DB	00H
	DB	00H
	DB	00H
	DB	00H
	DB	00H
	DB	00H
	DB	00H
	DB	00H
	DB	00H
	DB	00H
	DB	00H
	DB	00H
	DB	00H
	DB	00H
	DB	00H
	DB	00H
	DB	00H
	DB	00H
	DB	00H
	DB	00H
	DB	00H
	DB	00H
	DB	00H
	DB	00H
	DB	00H
	DB	00H
	DB	00H
	DB	00H
	DB	00H
	DB	00H
	DB	00H
	DB	00H
	DB	00H
	DB	00H
	DB	00H
	DB	00H
	DB	00H
	DB	00H
	DB	038H
	DB	01cH
	DB	010H
	DB	0ffH
	DB	038H
	DB	01cH
	DB	08H
	DB	0ffH
	DB	030H
	DB	018H
	DB	08H
	DB	0ffH
	DB	038H
	DB	01cH
	DB	010H
	DB	0ffH
	DB	038H
	DB	01cH
	DB	08H
	DB	0ffH
	DB	030H
	DB	01cH
	DB	08H
	DB	0ffH
	DB	038H
	DB	01cH
	DB	010H
	DB	0ffH
	DB	038H
	DB	01cH
	DB	08H
	DB	0ffH
	DB	030H
	DB	01cH
	DB	08H
	DB	0ffH
	DB	038H
	DB	01cH
	DB	010H
	DB	0ffH
	DB	038H
	DB	018H
	DB	08H
	DB	0ffH
	DB	030H
	DB	01cH
	DB	08H
	DB	0ffH
	DB	038H
	DB	01cH
	DB	010H
	DB	0ffH
	DB	038H
	DB	01cH
	DB	08H
	DB	0ffH
	DB	030H
	DB	01cH
	DB	08H
	DB	0ffH
	DB	038H
	DB	01cH
	DB	010H
	DB	0ffH
	DB	038H
	DB	01cH
	DB	08H
	DB	0ffH
	DB	030H
	DB	01cH
	DB	08H
	DB	0ffH
	DB	038H
	DB	01cH
	DB	010H
	DB	0ffH
	DB	038H
	DB	01cH
	DB	08H
	DB	0ffH
	DB	030H
	DB	01cH
	DB	010H
	DB	0ffH
	DB	038H
	DB	01cH
	DB	08H
	DB	0ffH
	DB	038H
	DB	01cH
	DB	010H
	DB	0ffH
	DB	030H
	DB	018H
	DB	08H
	DB	0ffH
	DB	038H
	DB	01cH
	DB	08H
	DB	0ffH
	DB	038H
	DB	01cH
	DB	010H
	DB	0ffH
	DB	030H
	DB	01cH
	DB	08H
	DB	0ffH
	DB	038H
	DB	01cH
	DB	08H
	DB	0ffH
	DB	038H
	DB	01cH
	DB	010H
	DB	0ffH
	DB	030H
	DB	01cH
	DB	08H
	DB	0ffH
	DB	038H
	DB	01cH
	DB	08H
	DB	0ffH
	DB	038H
	DB	01cH
	DB	010H
	DB	0ffH
	DB	030H
	DB	01cH
	DB	08H
	DB	0ffH
	DB	038H
	DB	01cH
	DB	010H
	DB	0ffH
	DB	038H
	DB	01cH
	DB	010H
	DB	0ffH
	DB	030H
	DB	01cH
	DB	08H
	DB	0ffH
	DB	038H
	DB	01cH
	DB	010H
	DB	0ffH
	DB	038H
	DB	01cH
	DB	08H
	DB	0ffH
	DB	030H
	DB	01cH
	DB	08H
	DB	0ffH
	DB	038H
	DB	01cH
	DB	010H
	DB	0ffH
	DB	038H
	DB	01cH
	DB	08H
	DB	0ffH
	DB	038H
	DB	01cH
	DB	010H
	DB	0ffH
	DB	038H
	DB	018H
	DB	010H
	DB	0ffH
	DB	030H
	DB	01cH
	DB	08H
	DB	0ffH
	DB	038H
	DB	01cH
	DB	010H
	DB	0ffH
	DB	038H
	DB	018H
	DB	08H
	DB	0ffH
	DB	038H
	DB	01cH
	DB	010H
	DB	0ffH
	DB	00H
	DB	00H
	DB	00H
	DB	00H
	DB	00H
	DB	00H
	DB	00H
	DB	00H
	DB	00H
	DB	00H
	DB	00H
	DB	00H
	DB	00H
	DB	00H
	DB	00H
	DB	00H
	DB	070H
	DB	060H
	DB	030H
	DB	0ffH
	DB	070H
	DB	05cH
	DB	038H
	DB	0ffH
	DB	078H
	DB	060H
	DB	038H
	DB	0ffH
	DB	070H
	DB	060H
	DB	038H
	DB	0ffH
	DB	078H
	DB	05cH
	DB	038H
	DB	0ffH
	DB	070H
	DB	060H
	DB	030H
	DB	0ffH
	DB	078H
	DB	05cH
	DB	038H
	DB	0ffH
	DB	070H
	DB	05cH
	DB	030H
	DB	0ffH
	DB	00H
	DB	00H
	DB	00H
	DB	00H
	DB	00H
	DB	00H
	DB	00H
	DB	00H
	DB	00H
	DB	00H
	DB	00H
	DB	00H
	DB	00H
	DB	00H
	DB	00H
	DB	00H
	DB	00H
	DB	00H
	DB	00H
	DB	00H
	DB	00H
	DB	00H
	DB	00H
	DB	00H
	DB	00H
	DB	00H
	DB	00H
	DB	00H
	DB	00H
	DB	00H
	DB	00H
	DB	00H
	DB	00H
	DB	00H
	DB	00H
	DB	00H
	DB	00H
	DB	00H
	DB	00H
	DB	00H
	DB	00H
	DB	00H
	DB	00H
	DB	00H
	DB	00H
	DB	00H
	DB	00H
	DB	00H
	DB	00H
	DB	00H
	DB	00H
	DB	00H
	DB	00H
	DB	00H
	DB	00H
	DB	00H
	DB	00H
	DB	00H
	DB	00H
	DB	00H
	DB	00H
	DB	00H
	DB	00H
	DB	00H
	DB	00H
	DB	00H
	DB	00H
	DB	00H
	DB	00H
	DB	00H
	DB	00H
	DB	00H
	DB	00H
	DB	00H
	DB	00H
	DB	00H
	DB	00H
	DB	00H
	DB	00H
	DB	00H
	DB	00H
	DB	00H
	DB	00H
	DB	00H
	DB	00H
	DB	00H
	DB	00H
	DB	00H
	DB	00H
	DB	00H
	DB	00H
	DB	00H
	DB	00H
	DB	00H
	DB	00H
	DB	00H
	DB	00H
	DB	00H
	DB	00H
	DB	00H
	DB	00H
	DB	00H
	DB	00H
	DB	00H
	DB	00H
	DB	00H
	DB	00H
	DB	00H
	DB	00H
	DB	00H
	DB	00H
	DB	00H
	DB	00H
	DB	00H
	DB	00H
	DB	00H
	DB	00H
	DB	00H
	DB	00H
	DB	00H
	DB	00H
	DB	00H
	DB	00H
	DB	00H
	DB	00H
	DB	00H
	DB	00H
	DB	00H
	DB	00H
	DB	00H
	DB	00H
	DB	00H
	DB	00H
	DB	00H
	DB	00H
	DB	00H
	DB	00H
	DB	00H
	DB	00H
	DB	00H
	DB	00H
	DB	00H
	DB	00H
	DB	00H
	DB	00H
	DB	00H
	DB	00H
	DB	00H
	DB	00H
	DB	00H
	DB	00H
	DB	00H
	DB	00H
	DB	00H
	DB	00H
	DB	00H
	DB	00H
	DB	00H
	DB	00H
	DB	00H
	DB	00H
	DB	00H
	DB	00H
	DB	00H
	DB	00H
	DB	00H
	DB	00H
	DB	00H
	DB	00H
	DB	00H
	DB	00H
	DB	00H
	DB	00H
	DB	00H
	DB	00H
	DB	00H
	DB	00H
	DB	00H
	DB	00H
	DB	00H
	DB	00H
	DB	00H
	DB	00H
	DB	00H
	DB	00H
	DB	00H
	DB	00H
	DB	00H
	DB	00H
	DB	00H
	DB	00H
	DB	00H
	DB	00H
	DB	00H
	DB	00H
	DB	00H
	DB	00H
	DB	00H
	DB	00H
	DB	00H
	DB	00H
	DB	00H
	DB	00H
	DB	00H
	DB	038H
	DB	01cH
	DB	010H
	DB	0ffH
	DB	038H
	DB	01cH
	DB	08H
	DB	0ffH
	DB	038H
	DB	01cH
	DB	010H
	DB	0ffH
	DB	038H
	DB	018H
	DB	010H
	DB	0ffH
	DB	038H
	DB	01cH
	DB	08H
	DB	0ffH
	DB	038H
	DB	018H
	DB	010H
	DB	0ffH
	DB	038H
	DB	01cH
	DB	010H
	DB	0ffH
	DB	038H
	DB	018H
	DB	08H
	DB	0ffH
	DB	038H
	DB	01cH
	DB	010H
	DB	0ffH
	DB	038H
	DB	01cH
	DB	010H
	DB	0ffH
	DB	038H
	DB	01cH
	DB	08H
	DB	0ffH
	DB	038H
	DB	018H
	DB	010H
	DB	0ffH
	DB	038H
	DB	01cH
	DB	010H
	DB	0ffH
	DB	038H
	DB	018H
	DB	08H
	DB	0ffH
	DB	038H
	DB	01cH
	DB	010H
	DB	0ffH
	DB	038H
	DB	018H
	DB	010H
	DB	0ffH
	DB	038H
	DB	01cH
	DB	08H
	DB	0ffH
	DB	038H
	DB	018H
	DB	010H
	DB	0ffH
	DB	038H
	DB	01cH
	DB	08H
	DB	0ffH
	DB	038H
	DB	018H
	DB	010H
	DB	0ffH
	DB	038H
	DB	01cH
	DB	08H
	DB	0ffH
	DB	038H
	DB	01cH
	DB	08H
	DB	0ffH
	DB	038H
	DB	018H
	DB	010H
	DB	0ffH
	DB	038H
	DB	01cH
	DB	010H
	DB	0ffH
	DB	038H
	DB	01cH
	DB	08H
	DB	0ffH
	DB	038H
	DB	018H
	DB	010H
	DB	0ffH
	DB	038H
	DB	01cH
	DB	010H
	DB	0ffH
	DB	038H
	DB	018H
	DB	08H
	DB	0ffH
	DB	038H
	DB	01cH
	DB	010H
	DB	0ffH
	DB	038H
	DB	018H
	DB	010H
	DB	0ffH
	DB	038H
	DB	01cH
	DB	08H
	DB	0ffH
	DB	038H
	DB	018H
	DB	010H
	DB	0ffH
	DB	038H
	DB	018H
	DB	08H
	DB	0ffH
	DB	038H
	DB	01cH
	DB	08H
	DB	0ffH
	DB	038H
	DB	018H
	DB	010H
	DB	0ffH
	DB	038H
	DB	01cH
	DB	08H
	DB	0ffH
	DB	038H
	DB	018H
	DB	010H
	DB	0ffH
	DB	038H
	DB	01cH
	DB	010H
	DB	0ffH
	DB	038H
	DB	018H
	DB	08H
	DB	0ffH
	DB	038H
	DB	01cH
	DB	010H
	DB	0ffH
	DB	038H
	DB	01cH
	DB	08H
	DB	0ffH
	DB	038H
	DB	018H
	DB	08H
	DB	0ffH
	DB	038H
	DB	01cH
	DB	010H
	DB	0ffH
	DB	038H
	DB	01cH
	DB	010H
	DB	0ffH
	DB	038H
	DB	01cH
	DB	08H
	DB	0ffH
	DB	038H
	DB	01cH
	DB	010H
	DB	0ffH
	DB	038H
	DB	01cH
	DB	08H
	DB	0ffH
	DB	00H
	DB	00H
	DB	00H
	DB	00H
	DB	00H
	DB	00H
	DB	00H
	DB	00H
	DB	00H
	DB	00H
	DB	00H
	DB	00H
	DB	00H
	DB	00H
	DB	00H
	DB	00H
	DB	078H
	DB	05cH
	DB	030H
	DB	0ffH
	DB	070H
	DB	05cH
	DB	030H
	DB	0ffH
	DB	078H
	DB	060H
	DB	030H
	DB	0ffH
	DB	070H
	DB	05cH
	DB	030H
	DB	0ffH
	DB	070H
	DB	05cH
	DB	030H
	DB	0ffH
	DB	078H
	DB	060H
	DB	038H
	DB	0ffH
	DB	078H
	DB	060H
	DB	030H
	DB	0ffH
	DB	070H
	DB	05cH
	DB	038H
	DB	0ffH
	DB	00H
	DB	00H
	DB	00H
	DB	00H
	DB	00H
	DB	00H
	DB	00H
	DB	00H
	DB	00H
	DB	00H
	DB	00H
	DB	00H
	DB	00H
	DB	00H
	DB	00H
	DB	00H
	DB	00H
	DB	00H
	DB	00H
	DB	00H
	DB	00H
	DB	00H
	DB	00H
	DB	00H
	DB	00H
	DB	00H
	DB	00H
	DB	00H
	DB	00H
	DB	00H
	DB	00H
	DB	00H
	DB	00H
	DB	00H
	DB	00H
	DB	00H
	DB	00H
	DB	00H
	DB	00H
	DB	00H
	DB	00H
	DB	00H
	DB	00H
	DB	00H
	DB	00H
	DB	00H
	DB	00H
	DB	00H
	DB	00H
	DB	00H
	DB	00H
	DB	00H
	DB	00H
	DB	00H
	DB	00H
	DB	00H
	DB	00H
	DB	00H
	DB	00H
	DB	00H
	DB	00H
	DB	00H
	DB	00H
	DB	00H
	DB	00H
	DB	00H
	DB	00H
	DB	00H
	DB	00H
	DB	00H
	DB	00H
	DB	00H
	DB	00H
	DB	00H
	DB	00H
	DB	00H
	DB	00H
	DB	00H
	DB	00H
	DB	00H
	DB	00H
	DB	00H
	DB	00H
	DB	00H
	DB	00H
	DB	00H
	DB	00H
	DB	00H
	DB	00H
	DB	00H
	DB	00H
	DB	00H
	DB	00H
	DB	00H
	DB	00H
	DB	00H
	DB	00H
	DB	00H
	DB	00H
	DB	00H
	DB	00H
	DB	00H
	DB	00H
	DB	00H
	DB	00H
	DB	00H
	DB	00H
	DB	00H
	DB	00H
	DB	00H
	DB	00H
	DB	00H
	DB	00H
	DB	00H
	DB	00H
	DB	00H
	DB	00H
	DB	00H
	DB	00H
	DB	00H
	DB	00H
	DB	00H
	DB	00H
	DB	00H
	DB	00H
	DB	00H
	DB	00H
	DB	00H
	DB	00H
	DB	00H
	DB	00H
	DB	00H
	DB	00H
	DB	00H
	DB	00H
	DB	00H
	DB	00H
	DB	00H
	DB	00H
	DB	00H
	DB	00H
	DB	00H
	DB	00H
	DB	00H
	DB	00H
	DB	00H
	DB	00H
	DB	00H
	DB	00H
	DB	00H
	DB	00H
	DB	00H
	DB	00H
	DB	00H
	DB	00H
	DB	00H
	DB	00H
	DB	00H
	DB	00H
	DB	00H
	DB	00H
	DB	00H
	DB	00H
	DB	00H
	DB	00H
	DB	00H
	DB	00H
	DB	00H
	DB	00H
	DB	00H
	DB	00H
	DB	00H
	DB	00H
	DB	00H
	DB	00H
	DB	00H
	DB	00H
	DB	00H
	DB	00H
	DB	00H
	DB	00H
	DB	00H
	DB	00H
	DB	00H
	DB	00H
	DB	00H
	DB	00H
	DB	00H
	DB	00H
	DB	00H
	DB	00H
	DB	00H
	DB	00H
	DB	00H
	DB	00H
	DB	00H
	DB	00H
	DB	00H
	DB	00H
	DB	00H
	DB	00H
	DB	00H
	DB	00H
	DB	00H
	DB	038H
	DB	018H
	DB	08H
	DB	0ffH
	DB	038H
	DB	01cH
	DB	010H
	DB	0ffH
	DB	038H
	DB	01cH
	DB	08H
	DB	0ffH
	DB	030H
	DB	01cH
	DB	08H
	DB	0ffH
	DB	038H
	DB	01cH
	DB	010H
	DB	0ffH
	DB	038H
	DB	01cH
	DB	08H
	DB	0ffH
	DB	038H
	DB	018H
	DB	08H
	DB	0ffH
	DB	030H
	DB	01cH
	DB	010H
	DB	0ffH
	DB	038H
	DB	01cH
	DB	08H
	DB	0ffH
	DB	038H
	DB	018H
	DB	08H
	DB	0ffH
	DB	030H
	DB	01cH
	DB	010H
	DB	0ffH
	DB	038H
	DB	01cH
	DB	08H
	DB	0ffH
	DB	038H
	DB	01cH
	DB	08H
	DB	0ffH
	DB	038H
	DB	01cH
	DB	010H
	DB	0ffH
	DB	038H
	DB	018H
	DB	08H
	DB	0ffH
	DB	030H
	DB	01cH
	DB	08H
	DB	0ffH
	DB	038H
	DB	01cH
	DB	010H
	DB	0ffH
	DB	038H
	DB	01cH
	DB	010H
	DB	0ffH
	DB	030H
	DB	018H
	DB	08H
	DB	0ffH
	DB	038H
	DB	01cH
	DB	010H
	DB	0ffH
	DB	038H
	DB	01cH
	DB	010H
	DB	0ffH
	DB	038H
	DB	018H
	DB	08H
	DB	0ffH
	DB	030H
	DB	01cH
	DB	010H
	DB	0ffH
	DB	038H
	DB	01cH
	DB	08H
	DB	0ffH
	DB	038H
	DB	01cH
	DB	08H
	DB	0ffH
	DB	030H
	DB	01cH
	DB	010H
	DB	0ffH
	DB	038H
	DB	018H
	DB	08H
	DB	0ffH
	DB	038H
	DB	01cH
	DB	08H
	DB	0ffH
	DB	038H
	DB	01cH
	DB	010H
	DB	0ffH
	DB	038H
	DB	01cH
	DB	08H
	DB	0ffH
	DB	030H
	DB	01cH
	DB	010H
	DB	0ffH
	DB	038H
	DB	01cH
	DB	010H
	DB	0ffH
	DB	038H
	DB	01cH
	DB	08H
	DB	0ffH
	DB	038H
	DB	01cH
	DB	010H
	DB	0ffH
	DB	030H
	DB	01cH
	DB	08H
	DB	0ffH
	DB	038H
	DB	018H
	DB	08H
	DB	0ffH
	DB	038H
	DB	01cH
	DB	010H
	DB	0ffH
	DB	038H
	DB	01cH
	DB	08H
	DB	0ffH
	DB	038H
	DB	01cH
	DB	010H
	DB	0ffH
	DB	038H
	DB	018H
	DB	010H
	DB	0ffH
	DB	030H
	DB	01cH
	DB	08H
	DB	0ffH
	DB	038H
	DB	01cH
	DB	08H
	DB	0ffH
	DB	038H
	DB	01cH
	DB	010H
	DB	0ffH
	DB	038H
	DB	018H
	DB	08H
	DB	0ffH
	DB	030H
	DB	01cH
	DB	08H
	DB	0ffH
	DB	038H
	DB	01cH
	DB	010H
	DB	0ffH
	DB	038H
	DB	018H
	DB	08H
	DB	0ffH
	DB	00H
	DB	00H
	DB	00H
	DB	00H
	DB	00H
	DB	00H
	DB	00H
	DB	00H
	DB	00H
	DB	00H
	DB	00H
	DB	00H
	DB	00H
	DB	00H
	DB	00H
	DB	00H
	DB	070H
	DB	060H
	DB	038H
	DB	0ffH
	DB	078H
	DB	05cH
	DB	038H
	DB	0ffH
	DB	070H
	DB	060H
	DB	038H
	DB	0ffH
	DB	078H
	DB	05cH
	DB	030H
	DB	0ffH
	DB	070H
	DB	05cH
	DB	030H
	DB	0ffH
	DB	070H
	DB	060H
	DB	038H
	DB	0ffH
	DB	078H
	DB	05cH
	DB	030H
	DB	0ffH
	DB	078H
	DB	060H
	DB	038H
	DB	0ffH
	DB	00H
	DB	00H
	DB	00H
	DB	00H
	DB	00H
	DB	00H
	DB	00H
	DB	00H
	DB	00H
	DB	00H
	DB	00H
	DB	00H
	DB	00H
	DB	00H
	DB	00H
	DB	00H
	DB	00H
	DB	00H
	DB	00H
	DB	00H
	DB	00H
	DB	00H
	DB	00H
	DB	00H
	DB	00H
	DB	00H
	DB	00H
	DB	00H
	DB	00H
	DB	00H
	DB	00H
	DB	00H
	DB	00H
	DB	00H
	DB	00H
	DB	00H
	DB	00H
	DB	00H
	DB	00H
	DB	00H
	DB	00H
	DB	00H
	DB	00H
	DB	00H
	DB	00H
	DB	00H
	DB	00H
	DB	00H
	DB	00H
	DB	00H
	DB	00H
	DB	00H
	DB	00H
	DB	00H
	DB	00H
	DB	00H
	DB	00H
	DB	00H
	DB	00H
	DB	00H
	DB	00H
	DB	00H
	DB	00H
	DB	00H
	DB	00H
	DB	00H
	DB	00H
	DB	00H
	DB	00H
	DB	00H
	DB	00H
	DB	00H
	DB	00H
	DB	00H
	DB	00H
	DB	00H
	DB	00H
	DB	00H
	DB	00H
	DB	00H
	DB	00H
	DB	00H
	DB	00H
	DB	00H
	DB	00H
	DB	00H
	DB	00H
	DB	00H
	DB	00H
	DB	00H
	DB	00H
	DB	00H
	DB	00H
	DB	00H
	DB	00H
	DB	00H
	DB	00H
	DB	00H
	DB	00H
	DB	00H
	DB	00H
	DB	00H
	DB	00H
	DB	00H
	DB	00H
	DB	00H
	DB	00H
	DB	00H
	DB	00H
	DB	00H
	DB	00H
	DB	00H
	DB	00H
	DB	00H
	DB	00H
	DB	00H
	DB	00H
	DB	00H
	DB	00H
	DB	00H
	DB	00H
	DB	00H
	DB	00H
	DB	00H
	DB	00H
	DB	00H
	DB	00H
	DB	00H
	DB	00H
	DB	00H
	DB	00H
	DB	00H
	DB	00H
	DB	00H
	DB	00H
	DB	00H
	DB	00H
	DB	00H
	DB	00H
	DB	00H
	DB	00H
	DB	00H
	DB	00H
	DB	00H
	DB	00H
	DB	00H
	DB	00H
	DB	00H
	DB	00H
	DB	00H
	DB	00H
	DB	00H
	DB	00H
	DB	00H
	DB	00H
	DB	00H
	DB	00H
	DB	00H
	DB	00H
	DB	00H
	DB	00H
	DB	00H
	DB	00H
	DB	00H
	DB	00H
	DB	00H
	DB	00H
	DB	00H
	DB	00H
	DB	00H
	DB	00H
	DB	00H
	DB	00H
	DB	00H
	DB	00H
	DB	00H
	DB	00H
	DB	00H
	DB	00H
	DB	00H
	DB	00H
	DB	00H
	DB	00H
	DB	00H
	DB	00H
	DB	00H
	DB	00H
	DB	00H
	DB	00H
	DB	00H
	DB	00H
	DB	00H
	DB	00H
	DB	00H
	DB	00H
	DB	00H
	DB	00H
	DB	00H
	DB	00H
	DB	00H
	DB	00H
	DB	00H
	DB	00H
	DB	00H
	DB	038H
	DB	01cH
	DB	08H
	DB	0ffH
	DB	038H
	DB	01cH
	DB	010H
	DB	0ffH
	DB	038H
	DB	018H
	DB	010H
	DB	0ffH
	DB	038H
	DB	01cH
	DB	08H
	DB	0ffH
	DB	038H
	DB	01cH
	DB	010H
	DB	0ffH
	DB	038H
	DB	01cH
	DB	010H
	DB	0ffH
	DB	038H
	DB	01cH
	DB	08H
	DB	0ffH
	DB	038H
	DB	01cH
	DB	010H
	DB	0ffH
	DB	038H
	DB	01cH
	DB	010H
	DB	0ffH
	DB	038H
	DB	018H
	DB	08H
	DB	0ffH
	DB	038H
	DB	01cH
	DB	010H
	DB	0ffH
	DB	038H
	DB	01cH
	DB	010H
	DB	0ffH
	DB	030H
	DB	018H
	DB	08H
	DB	0ffH
	DB	038H
	DB	01cH
	DB	010H
	DB	0ffH
	DB	038H
	DB	01cH
	DB	010H
	DB	0ffH
	DB	038H
	DB	01cH
	DB	08H
	DB	0ffH
	DB	038H
	DB	01cH
	DB	010H
	DB	0ffH
	DB	038H
	DB	01cH
	DB	08H
	DB	0ffH
	DB	038H
	DB	01cH
	DB	08H
	DB	0ffH
	DB	038H
	DB	01cH
	DB	010H
	DB	0ffH
	DB	038H
	DB	01cH
	DB	08H
	DB	0ffH
	DB	038H
	DB	01cH
	DB	010H
	DB	0ffH
	DB	038H
	DB	01cH
	DB	08H
	DB	0ffH
	DB	038H
	DB	018H
	DB	010H
	DB	0ffH
	DB	038H
	DB	01cH
	DB	010H
	DB	0ffH
	DB	038H
	DB	01cH
	DB	08H
	DB	0ffH
	DB	038H
	DB	01cH
	DB	010H
	DB	0ffH
	DB	030H
	DB	01cH
	DB	010H
	DB	0ffH
	DB	038H
	DB	018H
	DB	08H
	DB	0ffH
	DB	038H
	DB	01cH
	DB	08H
	DB	0ffH
	DB	038H
	DB	01cH
	DB	010H
	DB	0ffH
	DB	038H
	DB	018H
	DB	08H
	DB	0ffH
	DB	038H
	DB	01cH
	DB	010H
	DB	0ffH
	DB	038H
	DB	01cH
	DB	010H
	DB	0ffH
	DB	038H
	DB	01cH
	DB	08H
	DB	0ffH
	DB	038H
	DB	01cH
	DB	010H
	DB	0ffH
	DB	030H
	DB	01cH
	DB	08H
	DB	0ffH
	DB	038H
	DB	01cH
	DB	08H
	DB	0ffH
	DB	038H
	DB	01cH
	DB	010H
	DB	0ffH
	DB	038H
	DB	01cH
	DB	08H
	DB	0ffH
	DB	038H
	DB	018H
	DB	010H
	DB	0ffH
	DB	038H
	DB	01cH
	DB	010H
	DB	0ffH
	DB	038H
	DB	01cH
	DB	08H
	DB	0ffH
	DB	038H
	DB	018H
	DB	010H
	DB	0ffH
	DB	038H
	DB	01cH
	DB	010H
	DB	0ffH
	DB	038H
	DB	01cH
	DB	08H
	DB	0ffH
	DB	038H
	DB	01cH
	DB	010H
	DB	0ffH
	DB	00H
	DB	00H
	DB	00H
	DB	00H
	DB	00H
	DB	00H
	DB	00H
	DB	00H
	DB	00H
	DB	00H
	DB	00H
	DB	00H
	DB	00H
	DB	00H
	DB	00H
	DB	00H
	DB	070H
	DB	05cH
	DB	038H
	DB	0ffH
	DB	078H
	DB	060H
	DB	030H
	DB	0ffH
	DB	070H
	DB	05cH
	DB	038H
	DB	0ffH
	DB	070H
	DB	060H
	DB	038H
	DB	0ffH
	DB	078H
	DB	05cH
	DB	038H
	DB	0ffH
	DB	070H
	DB	060H
	DB	030H
	DB	0ffH
	DB	070H
	DB	05cH
	DB	038H
	DB	0ffH
	DB	078H
	DB	05cH
	DB	030H
	DB	0ffH
	DB	00H
	DB	00H
	DB	00H
	DB	00H
	DB	00H
	DB	00H
	DB	00H
	DB	00H
	DB	00H
	DB	00H
	DB	00H
	DB	00H
	DB	00H
	DB	00H
	DB	00H
	DB	00H
	DB	00H
	DB	00H
	DB	00H
	DB	00H
	DB	00H
	DB	00H
	DB	00H
	DB	00H
	DB	00H
	DB	00H
	DB	00H
	DB	00H
	DB	00H
	DB	00H
	DB	00H
	DB	00H
	DB	00H
	DB	00H
	DB	00H
	DB	00H
	DB	00H
	DB	00H
	DB	00H
	DB	00H
	DB	00H
	DB	00H
	DB	00H
	DB	00H
	DB	00H
	DB	00H
	DB	00H
	DB	00H
	DB	00H
	DB	00H
	DB	00H
	DB	00H
	DB	00H
	DB	00H
	DB	00H
	DB	00H
	DB	00H
	DB	00H
	DB	00H
	DB	00H
	DB	00H
	DB	00H
	DB	00H
	DB	00H
	DB	00H
	DB	00H
	DB	00H
	DB	00H
	DB	00H
	DB	00H
	DB	00H
	DB	00H
	DB	00H
	DB	00H
	DB	00H
	DB	00H
	DB	00H
	DB	00H
	DB	00H
	DB	00H
	DB	00H
	DB	00H
	DB	00H
	DB	00H
	DB	00H
	DB	00H
	DB	00H
	DB	00H
	DB	00H
	DB	00H
	DB	00H
	DB	00H
	DB	00H
	DB	00H
	DB	00H
	DB	00H
	DB	00H
	DB	00H
	DB	00H
	DB	00H
	DB	00H
	DB	00H
	DB	00H
	DB	00H
	DB	00H
	DB	00H
	DB	00H
	DB	00H
	DB	00H
	DB	00H
	DB	00H
	DB	00H
	DB	00H
	DB	00H
	DB	00H
	DB	00H
	DB	00H
	DB	00H
	DB	00H
	DB	00H
	DB	00H
	DB	00H
	DB	00H
	DB	00H
	DB	00H
	DB	00H
	DB	00H
	DB	00H
	DB	00H
	DB	00H
	DB	00H
	DB	00H
	DB	00H
	DB	00H
	DB	00H
	DB	00H
	DB	00H
	DB	00H
	DB	00H
	DB	00H
	DB	00H
	DB	00H
	DB	00H
	DB	00H
	DB	00H
	DB	00H
	DB	00H
	DB	00H
	DB	00H
	DB	00H
	DB	00H
	DB	00H
	DB	00H
	DB	00H
	DB	00H
	DB	00H
	DB	00H
	DB	00H
	DB	00H
	DB	00H
	DB	00H
	DB	00H
	DB	00H
	DB	00H
	DB	00H
	DB	00H
	DB	00H
	DB	00H
	DB	00H
	DB	00H
	DB	00H
	DB	00H
	DB	00H
	DB	00H
	DB	00H
	DB	00H
	DB	00H
	DB	00H
	DB	00H
	DB	00H
	DB	00H
	DB	00H
	DB	00H
	DB	00H
	DB	00H
	DB	00H
	DB	00H
	DB	00H
	DB	00H
	DB	00H
	DB	00H
	DB	00H
	DB	00H
	DB	00H
	DB	00H
	DB	00H
	DB	00H
	DB	00H
	DB	00H
	DB	00H
	DB	00H
	DB	00H
	DB	00H
	DB	00H
	DB	038H
	DB	01cH
	DB	010H
	DB	0ffH
	DB	030H
	DB	01cH
	DB	08H
	DB	0ffH
	DB	038H
	DB	018H
	DB	08H
	DB	0ffH
	DB	038H
	DB	01cH
	DB	010H
	DB	0ffH
	DB	038H
	DB	018H
	DB	08H
	DB	0ffH
	DB	030H
	DB	018H
	DB	010H
	DB	0ffH
	DB	038H
	DB	01cH
	DB	08H
	DB	0ffH
	DB	038H
	DB	01cH
	DB	08H
	DB	0ffH
	DB	038H
	DB	018H
	DB	010H
	DB	0ffH
	DB	038H
	DB	01cH
	DB	08H
	DB	0ffH
	DB	038H
	DB	01cH
	DB	08H
	DB	0ffH
	DB	038H
	DB	01cH
	DB	010H
	DB	0ffH
	DB	038H
	DB	018H
	DB	08H
	DB	0ffH
	DB	038H
	DB	01cH
	DB	08H
	DB	0ffH
	DB	038H
	DB	01cH
	DB	010H
	DB	0ffH
	DB	038H
	DB	018H
	DB	08H
	DB	0ffH
	DB	038H
	DB	018H
	DB	010H
	DB	0ffH
	DB	038H
	DB	01cH
	DB	08H
	DB	0ffH
	DB	038H
	DB	01cH
	DB	010H
	DB	0ffH
	DB	038H
	DB	018H
	DB	08H
	DB	0ffH
	DB	030H
	DB	01cH
	DB	08H
	DB	0ffH
	DB	038H
	DB	01cH
	DB	010H
	DB	0ffH
	DB	038H
	DB	018H
	DB	08H
	DB	0ffH
	DB	038H
	DB	01cH
	DB	08H
	DB	0ffH
	DB	038H
	DB	01cH
	DB	010H
	DB	0ffH
	DB	038H
	DB	018H
	DB	08H
	DB	0ffH
	DB	038H
	DB	01cH
	DB	010H
	DB	0ffH
	DB	038H
	DB	01cH
	DB	010H
	DB	0ffH
	DB	038H
	DB	018H
	DB	08H
	DB	0ffH
	DB	038H
	DB	01cH
	DB	010H
	DB	0ffH
	DB	038H
	DB	01cH
	DB	08H
	DB	0ffH
	DB	030H
	DB	018H
	DB	08H
	DB	0ffH
	DB	038H
	DB	01cH
	DB	010H
	DB	0ffH
	DB	038H
	DB	018H
	DB	08H
	DB	0ffH
	DB	038H
	DB	01cH
	DB	010H
	DB	0ffH
	DB	038H
	DB	01cH
	DB	010H
	DB	0ffH
	DB	038H
	DB	018H
	DB	08H
	DB	0ffH
	DB	038H
	DB	018H
	DB	010H
	DB	0ffH
	DB	038H
	DB	01cH
	DB	08H
	DB	0ffH
	DB	030H
	DB	01cH
	DB	08H
	DB	0ffH
	DB	038H
	DB	01cH
	DB	010H
	DB	0ffH
	DB	038H
	DB	01cH
	DB	08H
	DB	0ffH
	DB	030H
	DB	01cH
	DB	08H
	DB	0ffH
	DB	038H
	DB	01cH
	DB	010H
	DB	0ffH
	DB	038H
	DB	018H
	DB	08H
	DB	0ffH
	DB	038H
	DB	01cH
	DB	08H
	DB	0ffH
	DB	030H
	DB	01cH
	DB	010H
	DB	0ffH
	DB	00H
	DB	00H
	DB	00H
	DB	00H
	DB	00H
	DB	00H
	DB	00H
	DB	00H
	DB	00H
	DB	00H
	DB	00H
	DB	00H
	DB	00H
	DB	00H
	DB	00H
	DB	00H
	DB	078H
	DB	05cH
	DB	030H
	DB	0ffH
	DB	070H
	DB	060H
	DB	030H
	DB	0ffH
	DB	078H
	DB	05cH
	DB	030H
	DB	0ffH
	DB	078H
	DB	05cH
	DB	038H
	DB	0ffH
	DB	078H
	DB	060H
	DB	030H
	DB	0ffH
	DB	070H
	DB	05cH
	DB	038H
	DB	0ffH
	DB	078H
	DB	060H
	DB	030H
	DB	0ffH
	DB	070H
	DB	060H
	DB	038H
	DB	0ffH
	DB	00H
	DB	00H
	DB	00H
	DB	00H
	DB	00H
	DB	00H
	DB	00H
	DB	00H
	DB	00H
	DB	00H
	DB	00H
	DB	00H
	DB	00H
	DB	00H
	DB	00H
	DB	00H
	DB	00H
	DB	00H
	DB	00H
	DB	00H
	DB	00H
	DB	00H
	DB	00H
	DB	00H
	DB	00H
	DB	00H
	DB	00H
	DB	00H
	DB	00H
	DB	00H
	DB	00H
	DB	00H
	DB	00H
	DB	00H
	DB	00H
	DB	00H
	DB	00H
	DB	00H
	DB	00H
	DB	00H
	DB	00H
	DB	00H
	DB	00H
	DB	00H
	DB	00H
	DB	00H
	DB	00H
	DB	00H
	DB	00H
	DB	00H
	DB	00H
	DB	00H
	DB	00H
	DB	00H
	DB	00H
	DB	00H
	DB	00H
	DB	00H
	DB	00H
	DB	00H
	DB	00H
	DB	00H
	DB	00H
	DB	00H
	DB	00H
	DB	00H
	DB	00H
	DB	00H
	DB	00H
	DB	00H
	DB	00H
	DB	00H
	DB	00H
	DB	00H
	DB	00H
	DB	00H
	DB	00H
	DB	00H
	DB	00H
	DB	00H
	DB	00H
	DB	00H
	DB	00H
	DB	00H
	DB	00H
	DB	00H
	DB	00H
	DB	00H
	DB	00H
	DB	00H
	DB	00H
	DB	00H
	DB	00H
	DB	00H
	DB	00H
	DB	00H
	DB	00H
	DB	00H
	DB	00H
	DB	00H
	DB	00H
	DB	00H
	DB	00H
	DB	00H
	DB	00H
	DB	00H
	DB	00H
	DB	00H
	DB	00H
	DB	00H
	DB	00H
	DB	00H
	DB	00H
	DB	00H
	DB	00H
	DB	00H
	DB	00H
	DB	00H
	DB	00H
	DB	00H
	DB	00H
	DB	00H
	DB	00H
	DB	00H
	DB	00H
	DB	00H
	DB	00H
	DB	00H
	DB	00H
	DB	00H
	DB	00H
	DB	00H
	DB	00H
	DB	00H
	DB	00H
	DB	00H
	DB	00H
	DB	00H
	DB	00H
	DB	00H
	DB	00H
	DB	00H
	DB	00H
	DB	00H
	DB	00H
	DB	00H
	DB	00H
	DB	00H
	DB	00H
	DB	00H
	DB	00H
	DB	00H
	DB	00H
	DB	00H
	DB	00H
	DB	00H
	DB	00H
	DB	00H
	DB	00H
	DB	00H
	DB	00H
	DB	00H
	DB	00H
	DB	00H
	DB	00H
	DB	00H
	DB	00H
	DB	00H
	DB	00H
	DB	00H
	DB	00H
	DB	00H
	DB	00H
	DB	00H
	DB	00H
	DB	00H
	DB	00H
	DB	00H
	DB	00H
	DB	00H
	DB	00H
	DB	00H
	DB	00H
	DB	00H
	DB	00H
	DB	00H
	DB	00H
	DB	00H
	DB	00H
	DB	00H
	DB	00H
	DB	00H
	DB	00H
	DB	00H
	DB	00H
	DB	00H
	DB	00H
	DB	00H
	DB	00H
	DB	00H
	DB	00H
	DB	00H
	DB	00H
	DB	00H
	DB	038H
	DB	01cH
	DB	010H
	DB	0ffH
	DB	038H
	DB	01cH
	DB	08H
	DB	0ffH
	DB	038H
	DB	01cH
	DB	010H
	DB	0ffH
	DB	038H
	DB	01cH
	DB	08H
	DB	0ffH
	DB	038H
	DB	01cH
	DB	010H
	DB	0ffH
	DB	038H
	DB	01cH
	DB	08H
	DB	0ffH
	DB	038H
	DB	01cH
	DB	010H
	DB	0ffH
	DB	038H
	DB	01cH
	DB	010H
	DB	0ffH
	DB	030H
	DB	01cH
	DB	08H
	DB	0ffH
	DB	038H
	DB	01cH
	DB	010H
	DB	0ffH
	DB	038H
	DB	01cH
	DB	010H
	DB	0ffH
	DB	038H
	DB	01cH
	DB	08H
	DB	0ffH
	DB	038H
	DB	01cH
	DB	010H
	DB	0ffH
	DB	038H
	DB	01cH
	DB	010H
	DB	0ffH
	DB	030H
	DB	01cH
	DB	08H
	DB	0ffH
	DB	038H
	DB	01cH
	DB	010H
	DB	0ffH
	DB	038H
	DB	01cH
	DB	08H
	DB	0ffH
	DB	030H
	DB	01cH
	DB	010H
	DB	0ffH
	DB	038H
	DB	018H
	DB	010H
	DB	0ffH
	DB	038H
	DB	01cH
	DB	08H
	DB	0ffH
	DB	038H
	DB	01cH
	DB	010H
	DB	0ffH
	DB	038H
	DB	018H
	DB	010H
	DB	0ffH
	DB	038H
	DB	01cH
	DB	08H
	DB	0ffH
	DB	030H
	DB	01cH
	DB	010H
	DB	0ffH
	DB	038H
	DB	01cH
	DB	08H
	DB	0ffH
	DB	038H
	DB	018H
	DB	08H
	DB	0ffH
	DB	038H
	DB	01cH
	DB	08H
	DB	0ffH
	DB	038H
	DB	01cH
	DB	08H
	DB	0ffH
	DB	038H
	DB	01cH
	DB	010H
	DB	0ffH
	DB	038H
	DB	01cH
	DB	010H
	DB	0ffH
	DB	038H
	DB	01cH
	DB	08H
	DB	0ffH
	DB	038H
	DB	01cH
	DB	010H
	DB	0ffH
	DB	038H
	DB	01cH
	DB	08H
	DB	0ffH
	DB	038H
	DB	01cH
	DB	08H
	DB	0ffH
	DB	030H
	DB	018H
	DB	010H
	DB	0ffH
	DB	038H
	DB	01cH
	DB	08H
	DB	0ffH
	DB	038H
	DB	01cH
	DB	010H
	DB	0ffH
	DB	038H
	DB	01cH
	DB	010H
	DB	0ffH
	DB	038H
	DB	018H
	DB	08H
	DB	0ffH
	DB	038H
	DB	01cH
	DB	010H
	DB	0ffH
	DB	038H
	DB	01cH
	DB	010H
	DB	0ffH
	DB	038H
	DB	018H
	DB	08H
	DB	0ffH
	DB	038H
	DB	01cH
	DB	010H
	DB	0ffH
	DB	038H
	DB	01cH
	DB	010H
	DB	0ffH
	DB	038H
	DB	01cH
	DB	08H
	DB	0ffH
	DB	038H
	DB	018H
	DB	010H
	DB	0ffH
	DB	038H
	DB	01cH
	DB	08H
	DB	0ffH
	DB	00H
	DB	00H
	DB	00H
	DB	00H
	DB	00H
	DB	00H
	DB	00H
	DB	00H
	DB	00H
	DB	00H
	DB	00H
	DB	00H
	DB	00H
	DB	00H
	DB	00H
	DB	00H
	DB	070H
	DB	060H
	DB	038H
	DB	0ffH
	DB	078H
	DB	060H
	DB	038H
	DB	0ffH
	DB	070H
	DB	05cH
	DB	030H
	DB	0ffH
	DB	078H
	DB	060H
	DB	030H
	DB	0ffH
	DB	070H
	DB	05cH
	DB	030H
	DB	0ffH
	DB	078H
	DB	060H
	DB	038H
	DB	0ffH
	DB	070H
	DB	05cH
	DB	030H
	DB	0ffH
	DB	078H
	DB	060H
	DB	030H
	DB	0ffH
	DB	00H
	DB	00H
	DB	00H
	DB	00H
	DB	00H
	DB	00H
	DB	00H
	DB	00H
	DB	00H
	DB	00H
	DB	00H
	DB	00H
	DB	00H
	DB	00H
	DB	00H
	DB	00H
	DB	00H
	DB	00H
	DB	00H
	DB	00H
	DB	00H
	DB	00H
	DB	00H
	DB	00H
	DB	00H
	DB	00H
	DB	00H
	DB	00H
	DB	00H
	DB	00H
	DB	00H
	DB	00H
	DB	00H
	DB	00H
	DB	00H
	DB	00H
	DB	00H
	DB	00H
	DB	00H
	DB	00H
	DB	00H
	DB	00H
	DB	00H
	DB	00H
	DB	00H
	DB	00H
	DB	00H
	DB	00H
	DB	00H
	DB	00H
	DB	00H
	DB	00H
	DB	00H
	DB	00H
	DB	00H
	DB	00H
	DB	00H
	DB	00H
	DB	00H
	DB	00H
	DB	00H
	DB	00H
	DB	00H
	DB	00H
	DB	00H
	DB	00H
	DB	00H
	DB	00H
	DB	00H
	DB	00H
	DB	00H
	DB	00H
	DB	00H
	DB	00H
	DB	00H
	DB	00H
	DB	00H
	DB	00H
	DB	00H
	DB	00H
	DB	00H
	DB	00H
	DB	00H
	DB	00H
	DB	00H
	DB	00H
	DB	00H
	DB	00H
	DB	00H
	DB	00H
	DB	00H
	DB	00H
	DB	00H
	DB	00H
	DB	00H
	DB	00H
	DB	00H
	DB	00H
	DB	00H
	DB	00H
	DB	00H
	DB	00H
	DB	00H
	DB	00H
	DB	00H
	DB	00H
	DB	00H
	DB	00H
	DB	00H
	DB	00H
	DB	00H
	DB	00H
	DB	00H
	DB	00H
	DB	00H
	DB	00H
	DB	00H
	DB	00H
	DB	00H
	DB	00H
	DB	00H
	DB	00H
	DB	00H
	DB	00H
	DB	00H
	DB	00H
	DB	00H
	DB	00H
	DB	00H
	DB	00H
	DB	00H
	DB	00H
	DB	00H
	DB	00H
	DB	00H
	DB	00H
	DB	00H
	DB	00H
	DB	00H
	DB	00H
	DB	00H
	DB	00H
	DB	00H
	DB	00H
	DB	00H
	DB	00H
	DB	00H
	DB	00H
	DB	00H
	DB	00H
	DB	00H
	DB	00H
	DB	00H
	DB	00H
	DB	00H
	DB	00H
	DB	00H
	DB	00H
	DB	00H
	DB	00H
	DB	00H
	DB	00H
	DB	00H
	DB	00H
	DB	00H
	DB	00H
	DB	00H
	DB	00H
	DB	00H
	DB	00H
	DB	00H
	DB	00H
	DB	00H
	DB	00H
	DB	00H
	DB	00H
	DB	00H
	DB	00H
	DB	00H
	DB	00H
	DB	00H
	DB	00H
	DB	00H
	DB	00H
	DB	00H
	DB	00H
	DB	00H
	DB	00H
	DB	00H
	DB	00H
	DB	00H
	DB	00H
	DB	00H
	DB	00H
	DB	00H
	DB	00H
	DB	00H
	DB	00H
	DB	00H
	DB	00H
	DB	00H
	DB	00H
	DB	00H
	DB	00H
	DB	038H
	DB	018H
	DB	08H
	DB	0ffH
	DB	038H
	DB	01cH
	DB	010H
	DB	0ffH
	DB	038H
	DB	01cH
	DB	08H
	DB	0ffH
	DB	030H
	DB	018H
	DB	010H
	DB	0ffH
	DB	038H
	DB	01cH
	DB	08H
	DB	0ffH
	DB	038H
	DB	01cH
	DB	08H
	DB	0ffH
	DB	038H
	DB	018H
	DB	010H
	DB	0ffH
	DB	038H
	DB	01cH
	DB	08H
	DB	0ffH
	DB	038H
	DB	018H
	DB	08H
	DB	0ffH
	DB	038H
	DB	018H
	DB	010H
	DB	0ffH
	DB	030H
	DB	01cH
	DB	08H
	DB	0ffH
	DB	038H
	DB	018H
	DB	08H
	DB	0ffH
	DB	038H
	DB	01cH
	DB	010H
	DB	0ffH
	DB	038H
	DB	018H
	DB	08H
	DB	0ffH
	DB	038H
	DB	01cH
	DB	010H
	DB	0ffH
	DB	038H
	DB	01cH
	DB	08H
	DB	0ffH
	DB	038H
	DB	01cH
	DB	08H
	DB	0ffH
	DB	038H
	DB	018H
	DB	010H
	DB	0ffH
	DB	038H
	DB	01cH
	DB	08H
	DB	0ffH
	DB	038H
	DB	01cH
	DB	08H
	DB	0ffH
	DB	038H
	DB	01cH
	DB	010H
	DB	0ffH
	DB	038H
	DB	01cH
	DB	08H
	DB	0ffH
	DB	038H
	DB	01cH
	DB	010H
	DB	0ffH
	DB	038H
	DB	01cH
	DB	010H
	DB	0ffH
	DB	038H
	DB	018H
	DB	010H
	DB	0ffH
	DB	030H
	DB	01cH
	DB	010H
	DB	0ffH
	DB	038H
	DB	01cH
	DB	010H
	DB	0ffH
	DB	038H
	DB	018H
	DB	08H
	DB	0ffH
	DB	030H
	DB	01cH
	DB	08H
	DB	0ffH
	DB	038H
	DB	01cH
	DB	010H
	DB	0ffH
	DB	038H
	DB	018H
	DB	010H
	DB	0ffH
	DB	038H
	DB	01cH
	DB	08H
	DB	0ffH
	DB	038H
	DB	01cH
	DB	010H
	DB	0ffH
	DB	038H
	DB	01cH
	DB	010H
	DB	0ffH
	DB	038H
	DB	01cH
	DB	08H
	DB	0ffH
	DB	038H
	DB	018H
	DB	08H
	DB	0ffH
	DB	038H
	DB	01cH
	DB	010H
	DB	0ffH
	DB	030H
	DB	01cH
	DB	08H
	DB	0ffH
	DB	038H
	DB	01cH
	DB	08H
	DB	0ffH
	DB	038H
	DB	018H
	DB	010H
	DB	0ffH
	DB	038H
	DB	01cH
	DB	08H
	DB	0ffH
	DB	038H
	DB	01cH
	DB	08H
	DB	0ffH
	DB	038H
	DB	018H
	DB	010H
	DB	0ffH
	DB	038H
	DB	01cH
	DB	08H
	DB	0ffH
	DB	030H
	DB	01cH
	DB	010H
	DB	0ffH
	DB	038H
	DB	01cH
	DB	010H
	DB	0ffH
	DB	038H
	DB	018H
	DB	08H
	DB	0ffH
	DB	00H
	DB	00H
	DB	00H
	DB	00H
	DB	00H
	DB	00H
	DB	00H
	DB	00H
	DB	00H
	DB	00H
	DB	00H
	DB	00H
	DB	00H
	DB	00H
	DB	00H
	DB	00H
	DB	070H
	DB	05cH
	DB	030H
	DB	0ffH
	DB	078H
	DB	05cH
	DB	038H
	DB	0ffH
	DB	070H
	DB	060H
	DB	038H
	DB	0ffH
	DB	070H
	DB	05cH
	DB	030H
	DB	0ffH
	DB	070H
	DB	05cH
	DB	038H
	DB	0ffH
	DB	078H
	DB	060H
	DB	030H
	DB	0ffH
	DB	070H
	DB	05cH
	DB	038H
	DB	0ffH
	DB	070H
	DB	05cH
	DB	038H
	DB	0ffH
	DB	00H
	DB	00H
	DB	00H
	DB	00H
	DB	00H
	DB	00H
	DB	00H
	DB	00H
	DB	00H
	DB	00H
	DB	00H
	DB	00H
	DB	00H
	DB	00H
	DB	00H
	DB	00H
	DB	00H
	DB	00H
	DB	00H
	DB	00H
	DB	00H
	DB	00H
	DB	00H
	DB	00H
	DB	00H
	DB	00H
	DB	00H
	DB	00H
	DB	00H
	DB	00H
	DB	00H
	DB	00H
	DB	00H
	DB	00H
	DB	00H
	DB	00H
	DB	00H
	DB	00H
	DB	00H
	DB	00H
	DB	00H
	DB	00H
	DB	00H
	DB	00H
	DB	00H
	DB	00H
	DB	00H
	DB	00H
	DB	00H
	DB	00H
	DB	00H
	DB	00H
	DB	00H
	DB	00H
	DB	00H
	DB	00H
	DB	00H
	DB	00H
	DB	00H
	DB	00H
	DB	00H
	DB	00H
	DB	00H
	DB	00H
	DB	00H
	DB	00H
	DB	00H
	DB	00H
	DB	00H
	DB	00H
	DB	00H
	DB	00H
	DB	00H
	DB	00H
	DB	00H
	DB	00H
	DB	00H
	DB	00H
	DB	00H
	DB	00H
	DB	00H
	DB	00H
	DB	00H
	DB	00H
	DB	00H
	DB	00H
	DB	00H
	DB	00H
	DB	00H
	DB	00H
	DB	00H
	DB	00H
	DB	00H
	DB	00H
	DB	00H
	DB	00H
	DB	00H
	DB	00H
	DB	00H
	DB	00H
	DB	00H
	DB	00H
	DB	00H
	DB	00H
	DB	00H
	DB	00H
	DB	00H
	DB	00H
	DB	00H
	DB	00H
	DB	00H
	DB	00H
	DB	00H
	DB	00H
	DB	00H
	DB	00H
	DB	00H
	DB	00H
	DB	00H
	DB	00H
	DB	00H
	DB	00H
	DB	00H
	DB	00H
	DB	00H
	DB	00H
	DB	00H
	DB	00H
	DB	00H
	DB	00H
	DB	00H
	DB	00H
	DB	00H
	DB	00H
	DB	00H
	DB	00H
	DB	00H
	DB	00H
	DB	00H
	DB	00H
	DB	00H
	DB	00H
	DB	00H
	DB	00H
	DB	00H
	DB	00H
	DB	00H
	DB	00H
	DB	00H
	DB	00H
	DB	00H
	DB	00H
	DB	00H
	DB	00H
	DB	00H
	DB	00H
	DB	00H
	DB	00H
	DB	00H
	DB	00H
	DB	00H
	DB	00H
	DB	00H
	DB	00H
	DB	00H
	DB	00H
	DB	00H
	DB	00H
	DB	00H
	DB	00H
	DB	00H
	DB	00H
	DB	00H
	DB	00H
	DB	00H
	DB	00H
	DB	00H
	DB	00H
	DB	00H
	DB	00H
	DB	00H
	DB	00H
	DB	00H
	DB	00H
	DB	00H
	DB	00H
	DB	00H
	DB	00H
	DB	00H
	DB	00H
	DB	00H
	DB	00H
	DB	00H
	DB	00H
	DB	00H
	DB	00H
	DB	00H
	DB	00H
	DB	00H
	DB	00H
	DB	00H
	DB	00H
	DB	00H
	DB	00H
	DB	038H
	DB	01cH
	DB	08H
	DB	0ffH
	DB	038H
	DB	01cH
	DB	010H
	DB	0ffH
	DB	038H
	DB	018H
	DB	010H
	DB	0ffH
	DB	038H
	DB	01cH
	DB	08H
	DB	0ffH
	DB	038H
	DB	01cH
	DB	010H
	DB	0ffH
	DB	038H
	DB	018H
	DB	010H
	DB	0ffH
	DB	030H
	DB	01cH
	DB	08H
	DB	0ffH
	DB	038H
	DB	01cH
	DB	010H
	DB	0ffH
	DB	038H
	DB	01cH
	DB	010H
	DB	0ffH
	DB	038H
	DB	01cH
	DB	08H
	DB	0ffH
	DB	038H
	DB	01cH
	DB	010H
	DB	0ffH
	DB	038H
	DB	01cH
	DB	010H
	DB	0ffH
	DB	038H
	DB	018H
	DB	08H
	DB	0ffH
	DB	030H
	DB	01cH
	DB	08H
	DB	0ffH
	DB	038H
	DB	01cH
	DB	010H
	DB	0ffH
	DB	038H
	DB	018H
	DB	010H
	DB	0ffH
	DB	038H
	DB	01cH
	DB	08H
	DB	0ffH
	DB	038H
	DB	01cH
	DB	010H
	DB	0ffH
	DB	030H
	DB	01cH
	DB	010H
	DB	0ffH
	DB	038H
	DB	018H
	DB	08H
	DB	0ffH
	DB	038H
	DB	01cH
	DB	010H
	DB	0ffH
	DB	030H
	DB	018H
	DB	08H
	DB	0ffH
	DB	038H
	DB	01cH
	DB	08H
	DB	0ffH
	DB	038H
	DB	01cH
	DB	08H
	DB	0ffH
	DB	038H
	DB	01cH
	DB	08H
	DB	0ffH
	DB	038H
	DB	01cH
	DB	010H
	DB	0ffH
	DB	038H
	DB	01cH
	DB	010H
	DB	0ffH
	DB	038H
	DB	018H
	DB	08H
	DB	0ffH
	DB	038H
	DB	01cH
	DB	010H
	DB	0ffH
	DB	038H
	DB	01cH
	DB	08H
	DB	0ffH
	DB	030H
	DB	018H
	DB	08H
	DB	0ffH
	DB	038H
	DB	01cH
	DB	010H
	DB	0ffH
	DB	038H
	DB	018H
	DB	08H
	DB	0ffH
	DB	030H
	DB	01cH
	DB	010H
	DB	0ffH
	DB	038H
	DB	01cH
	DB	08H
	DB	0ffH
	DB	038H
	DB	01cH
	DB	010H
	DB	0ffH
	DB	038H
	DB	018H
	DB	010H
	DB	0ffH
	DB	038H
	DB	01cH
	DB	08H
	DB	0ffH
	DB	038H
	DB	01cH
	DB	010H
	DB	0ffH
	DB	038H
	DB	01cH
	DB	010H
	DB	0ffH
	DB	030H
	DB	01cH
	DB	08H
	DB	0ffH
	DB	038H
	DB	01cH
	DB	010H
	DB	0ffH
	DB	038H
	DB	018H
	DB	08H
	DB	0ffH
	DB	038H
	DB	01cH
	DB	08H
	DB	0ffH
	DB	038H
	DB	01cH
	DB	010H
	DB	0ffH
	DB	038H
	DB	01cH
	DB	08H
	DB	0ffH
	DB	038H
	DB	01cH
	DB	010H
	DB	0ffH
	DB	00H
	DB	00H
	DB	00H
	DB	00H
	DB	00H
	DB	00H
	DB	00H
	DB	00H
	DB	00H
	DB	00H
	DB	00H
	DB	00H
	DB	00H
	DB	00H
	DB	00H
	DB	00H
	DB	078H
	DB	05cH
	DB	030H
	DB	0ffH
	DB	070H
	DB	060H
	DB	038H
	DB	0ffH
	DB	078H
	DB	060H
	DB	030H
	DB	0ffH
	DB	078H
	DB	05cH
	DB	038H
	DB	0ffH
	DB	078H
	DB	060H
	DB	030H
	DB	0ffH
	DB	070H
	DB	05cH
	DB	038H
	DB	0ffH
	DB	078H
	DB	060H
	DB	030H
	DB	0ffH
	DB	078H
	DB	060H
	DB	038H
	DB	0ffH
	DB	00H
	DB	00H
	DB	00H
	DB	00H
	DB	00H
	DB	00H
	DB	00H
	DB	00H
	DB	00H
	DB	00H
	DB	00H
	DB	00H
	DB	00H
	DB	00H
	DB	00H
	DB	00H
	DB	00H
	DB	00H
	DB	00H
	DB	00H
	DB	00H
	DB	00H
	DB	00H
	DB	00H
	DB	00H
	DB	00H
	DB	00H
	DB	00H
	DB	00H
	DB	00H
	DB	00H
	DB	00H
	DB	00H
	DB	00H
	DB	00H
	DB	00H
	DB	00H
	DB	00H
	DB	00H
	DB	00H
	DB	00H
	DB	00H
	DB	00H
	DB	00H
	DB	00H
	DB	00H
	DB	00H
	DB	00H
	DB	00H
	DB	00H
	DB	00H
	DB	00H
	DB	00H
	DB	00H
	DB	00H
	DB	00H
	DB	00H
	DB	00H
	DB	00H
	DB	00H
	DB	00H
	DB	00H
	DB	00H
	DB	00H
	DB	00H
	DB	00H
	DB	00H
	DB	00H
	DB	00H
	DB	00H
	DB	00H
	DB	00H
	DB	00H
	DB	00H
	DB	00H
	DB	00H
	DB	00H
	DB	00H
	DB	00H
	DB	00H
	DB	00H
	DB	00H
	DB	00H
	DB	00H
	DB	00H
	DB	00H
	DB	00H
	DB	00H
	DB	00H
	DB	00H
	DB	00H
	DB	00H
	DB	00H
	DB	00H
	DB	00H
	DB	00H
	DB	00H
	DB	00H
	DB	00H
	DB	00H
	DB	00H
	DB	00H
	DB	00H
	DB	00H
	DB	00H
	DB	00H
	DB	00H
	DB	00H
	DB	00H
	DB	00H
	DB	00H
	DB	00H
	DB	00H
	DB	00H
	DB	00H
	DB	00H
	DB	00H
	DB	00H
	DB	00H
	DB	00H
	DB	00H
	DB	00H
	DB	00H
	DB	00H
	DB	00H
	DB	00H
	DB	00H
	DB	00H
	DB	00H
	DB	00H
	DB	00H
	DB	00H
	DB	00H
	DB	00H
	DB	00H
	DB	00H
	DB	00H
	DB	00H
	DB	00H
	DB	00H
	DB	00H
	DB	00H
	DB	00H
	DB	00H
	DB	00H
	DB	00H
	DB	00H
	DB	00H
	DB	00H
	DB	00H
	DB	00H
	DB	00H
	DB	00H
	DB	00H
	DB	00H
	DB	00H
	DB	00H
	DB	00H
	DB	00H
	DB	00H
	DB	00H
	DB	00H
	DB	00H
	DB	00H
	DB	00H
	DB	00H
	DB	00H
	DB	00H
	DB	00H
	DB	00H
	DB	00H
	DB	00H
	DB	00H
	DB	00H
	DB	00H
	DB	00H
	DB	00H
	DB	00H
	DB	00H
	DB	00H
	DB	00H
	DB	00H
	DB	00H
	DB	00H
	DB	00H
	DB	00H
	DB	00H
	DB	00H
	DB	00H
	DB	00H
	DB	00H
	DB	00H
	DB	00H
	DB	00H
	DB	00H
	DB	00H
	DB	00H
	DB	00H
	DB	00H
	DB	00H
	DB	00H
	DB	00H
	DB	00H
	DB	00H
	DB	038H
	DB	01cH
	DB	010H
	DB	0ffH
	DB	038H
	DB	01cH
	DB	08H
	DB	0ffH
	DB	038H
	DB	01cH
	DB	08H
	DB	0ffH
	DB	038H
	DB	01cH
	DB	010H
	DB	0ffH
	DB	038H
	DB	01cH
	DB	08H
	DB	0ffH
	DB	038H
	DB	01cH
	DB	010H
	DB	0ffH
	DB	038H
	DB	01cH
	DB	08H
	DB	0ffH
	DB	038H
	DB	01cH
	DB	08H
	DB	0ffH
	DB	038H
	DB	018H
	DB	010H
	DB	0ffH
	DB	038H
	DB	01cH
	DB	08H
	DB	0ffH
	DB	038H
	DB	01cH
	DB	08H
	DB	0ffH
	DB	038H
	DB	01cH
	DB	010H
	DB	0ffH
	DB	038H
	DB	01cH
	DB	010H
	DB	0ffH
	DB	038H
	DB	01cH
	DB	08H
	DB	0ffH
	DB	038H
	DB	01cH
	DB	010H
	DB	0ffH
	DB	038H
	DB	018H
	DB	08H
	DB	0ffH
	DB	030H
	DB	01cH
	DB	08H
	DB	0ffH
	DB	038H
	DB	01cH
	DB	010H
	DB	0ffH
	DB	038H
	DB	018H
	DB	08H
	DB	0ffH
	DB	038H
	DB	01cH
	DB	010H
	DB	0ffH
	DB	038H
	DB	01cH
	DB	010H
	DB	0ffH
	DB	038H
	DB	01cH
	DB	08H
	DB	0ffH
	DB	038H
	DB	018H
	DB	010H
	DB	0ffH
	DB	038H
	DB	01cH
	DB	010H
	DB	0ffH
	DB	038H
	DB	018H
	DB	08H
	DB	0ffH
	DB	038H
	DB	01cH
	DB	08H
	DB	0ffH
	DB	038H
	DB	01cH
	DB	08H
	DB	0ffH
	DB	038H
	DB	01cH
	DB	010H
	DB	0ffH
	DB	038H
	DB	01cH
	DB	010H
	DB	0ffH
	DB	038H
	DB	01cH
	DB	08H
	DB	0ffH
	DB	038H
	DB	01cH
	DB	010H
	DB	0ffH
	DB	038H
	DB	01cH
	DB	08H
	DB	0ffH
	DB	038H
	DB	01cH
	DB	08H
	DB	0ffH
	DB	038H
	DB	018H
	DB	010H
	DB	0ffH
	DB	038H
	DB	01cH
	DB	08H
	DB	0ffH
	DB	038H
	DB	01cH
	DB	08H
	DB	0ffH
	DB	038H
	DB	01cH
	DB	010H
	DB	0ffH
	DB	038H
	DB	018H
	DB	08H
	DB	0ffH
	DB	038H
	DB	01cH
	DB	010H
	DB	0ffH
	DB	038H
	DB	01cH
	DB	08H
	DB	0ffH
	DB	038H
	DB	018H
	DB	010H
	DB	0ffH
	DB	038H
	DB	01cH
	DB	010H
	DB	0ffH
	DB	038H
	DB	01cH
	DB	08H
	DB	0ffH
	DB	030H
	DB	018H
	DB	010H
	DB	0ffH
	DB	038H
	DB	01cH
	DB	08H
	DB	0ffH
	DB	038H
	DB	018H
	DB	08H
	DB	0ffH
	DB	038H
	DB	01cH
	DB	010H
	DB	0ffH
	DB	00H
	DB	00H
	DB	00H
	DB	00H
	DB	00H
	DB	00H
	DB	00H
	DB	00H
	DB	00H
	DB	00H
	DB	00H
	DB	00H
	DB	00H
	DB	00H
	DB	00H
	DB	00H
	DB	070H
	DB	060H
	DB	038H
	DB	0ffH
	DB	070H
	DB	05cH
	DB	030H
	DB	0ffH
	DB	078H
	DB	05cH
	DB	030H
	DB	0ffH
	DB	070H
	DB	060H
	DB	038H
	DB	0ffH
	DB	070H
	DB	05cH
	DB	030H
	DB	0ffH
	DB	078H
	DB	05cH
	DB	038H
	DB	0ffH
	DB	070H
	DB	060H
	DB	030H
	DB	0ffH
	DB	078H
	DB	05cH
	DB	030H
	DB	0ffH
	DB	00H
	DB	00H
	DB	00H
	DB	00H
	DB	00H
	DB	00H
	DB	00H
	DB	00H
	DB	00H
	DB	00H
	DB	00H
	DB	00H
	DB	00H
	DB	00H
	DB	00H
	DB	00H
	DB	00H
	DB	00H
	DB	00H
	DB	00H
	DB	00H
	DB	00H
	DB	00H
	DB	00H
	DB	00H
	DB	00H
	DB	00H
	DB	00H
	DB	00H
	DB	00H
	DB	00H
	DB	00H
	DB	00H
	DB	00H
	DB	00H
	DB	00H
	DB	00H
	DB	00H
	DB	00H
	DB	00H
	DB	00H
	DB	00H
	DB	00H
	DB	00H
	DB	00H
	DB	00H
	DB	00H
	DB	00H
	DB	00H
	DB	00H
	DB	00H
	DB	00H
	DB	00H
	DB	00H
	DB	00H
	DB	00H
	DB	00H
	DB	00H
	DB	00H
	DB	00H
	DB	00H
	DB	00H
	DB	00H
	DB	00H
	DB	00H
	DB	00H
	DB	00H
	DB	00H
	DB	00H
	DB	00H
	DB	00H
	DB	00H
	DB	00H
	DB	00H
	DB	00H
	DB	00H
	DB	00H
	DB	00H
	DB	00H
	DB	00H
	DB	00H
	DB	00H
	DB	00H
	DB	00H
	DB	00H
	DB	00H
	DB	00H
	DB	00H
	DB	00H
	DB	00H
	DB	00H
	DB	00H
	DB	00H
	DB	00H
	DB	00H
	DB	00H
	DB	00H
	DB	00H
	DB	00H
	DB	00H
	DB	00H
	DB	00H
	DB	00H
	DB	00H
	DB	00H
	DB	00H
	DB	00H
	DB	00H
	DB	00H
	DB	00H
	DB	00H
	DB	00H
	DB	00H
	DB	00H
	DB	00H
	DB	00H
	DB	00H
	DB	00H
	DB	00H
	DB	00H
	DB	00H
	DB	00H
	DB	00H
	DB	00H
	DB	00H
	DB	00H
	DB	00H
	DB	00H
	DB	00H
	DB	00H
	DB	00H
	DB	00H
	DB	00H
	DB	00H
	DB	00H
	DB	00H
	DB	00H
	DB	00H
	DB	00H
	DB	00H
	DB	00H
	DB	00H
	DB	00H
	DB	00H
	DB	00H
	DB	00H
	DB	00H
	DB	00H
	DB	00H
	DB	00H
	DB	00H
	DB	00H
	DB	00H
	DB	00H
	DB	00H
	DB	00H
	DB	00H
	DB	00H
	DB	00H
	DB	00H
	DB	00H
	DB	00H
	DB	00H
	DB	00H
	DB	00H
	DB	00H
	DB	00H
	DB	00H
	DB	00H
	DB	00H
	DB	00H
	DB	00H
	DB	00H
	DB	00H
	DB	00H
	DB	00H
	DB	00H
	DB	00H
	DB	00H
	DB	00H
	DB	00H
	DB	00H
	DB	00H
	DB	00H
	DB	00H
	DB	00H
	DB	00H
	DB	00H
	DB	00H
	DB	00H
	DB	00H
	DB	00H
	DB	00H
	DB	00H
	DB	00H
	DB	00H
	DB	00H
	DB	00H
	DB	00H
	DB	00H
	DB	00H
	DB	00H
	DB	00H
	DB	00H
	DB	038H
	DB	01cH
	DB	08H
	DB	0ffH
	DB	030H
	DB	018H
	DB	010H
	DB	0ffH
	DB	038H
	DB	01cH
	DB	08H
	DB	0ffH
	DB	038H
	DB	018H
	DB	010H
	DB	0ffH
	DB	030H
	DB	01cH
	DB	08H
	DB	0ffH
	DB	038H
	DB	018H
	DB	08H
	DB	0ffH
	DB	038H
	DB	01cH
	DB	010H
	DB	0ffH
	DB	038H
	DB	01cH
	DB	010H
	DB	0ffH
	DB	030H
	DB	018H
	DB	08H
	DB	0ffH
	DB	038H
	DB	01cH
	DB	010H
	DB	0ffH
	DB	038H
	DB	018H
	DB	08H
	DB	0ffH
	DB	030H
	DB	01cH
	DB	08H
	DB	0ffH
	DB	038H
	DB	01cH
	DB	010H
	DB	0ffH
	DB	038H
	DB	018H
	DB	08H
	DB	0ffH
	DB	038H
	DB	01cH
	DB	010H
	DB	0ffH
	DB	038H
	DB	01cH
	DB	010H
	DB	0ffH
	DB	038H
	DB	01cH
	DB	08H
	DB	0ffH
	DB	038H
	DB	01cH
	DB	010H
	DB	0ffH
	DB	038H
	DB	018H
	DB	08H
	DB	0ffH
	DB	038H
	DB	01cH
	DB	08H
	DB	0ffH
	DB	038H
	DB	01cH
	DB	010H
	DB	0ffH
	DB	038H
	DB	01cH
	DB	08H
	DB	0ffH
	DB	030H
	DB	01cH
	DB	010H
	DB	0ffH
	DB	038H
	DB	018H
	DB	010H
	DB	0ffH
	DB	038H
	DB	01cH
	DB	08H
	DB	0ffH
	DB	030H
	DB	01cH
	DB	010H
	DB	0ffH
	DB	038H
	DB	018H
	DB	08H
	DB	0ffH
	DB	038H
	DB	01cH
	DB	010H
	DB	0ffH
	DB	030H
	DB	018H
	DB	08H
	DB	0ffH
	DB	038H
	DB	01cH
	DB	010H
	DB	0ffH
	DB	038H
	DB	018H
	DB	010H
	DB	0ffH
	DB	038H
	DB	01cH
	DB	08H
	DB	0ffH
	DB	038H
	DB	01cH
	DB	010H
	DB	0ffH
	DB	038H
	DB	018H
	DB	010H
	DB	0ffH
	DB	038H
	DB	01cH
	DB	08H
	DB	0ffH
	DB	030H
	DB	01cH
	DB	010H
	DB	0ffH
	DB	038H
	DB	01cH
	DB	08H
	DB	0ffH
	DB	038H
	DB	01cH
	DB	010H
	DB	0ffH
	DB	030H
	DB	018H
	DB	08H
	DB	0ffH
	DB	038H
	DB	01cH
	DB	08H
	DB	0ffH
	DB	038H
	DB	01cH
	DB	010H
	DB	0ffH
	DB	038H
	DB	01cH
	DB	08H
	DB	0ffH
	DB	038H
	DB	01cH
	DB	010H
	DB	0ffH
	DB	038H
	DB	01cH
	DB	010H
	DB	0ffH
	DB	038H
	DB	01cH
	DB	08H
	DB	0ffH
	DB	038H
	DB	01cH
	DB	010H
	DB	0ffH
	DB	030H
	DB	018H
	DB	08H
	DB	0ffH
	DB	00H
	DB	00H
	DB	00H
	DB	00H
	DB	00H
	DB	00H
	DB	00H
	DB	00H
	DB	00H
	DB	00H
	DB	00H
	DB	00H
	DB	00H
	DB	00H
	DB	00H
	DB	00H
	DB	070H
	DB	05cH
	DB	038H
	DB	0ffH
	DB	078H
	DB	060H
	DB	030H
	DB	0ffH
	DB	070H
	DB	05cH
	DB	038H
	DB	0ffH
	DB	070H
	DB	060H
	DB	030H
	DB	0ffH
	DB	070H
	DB	05cH
	DB	038H
	DB	0ffH
	DB	078H
	DB	060H
	DB	030H
	DB	0ffH
	DB	070H
	DB	05cH
	DB	038H
	DB	0ffH
	DB	070H
	DB	060H
	DB	038H
	DB	0ffH
	DB	00H
	DB	00H
	DB	00H
	DB	00H
	DB	00H
	DB	00H
	DB	00H
	DB	00H
	DB	00H
	DB	00H
	DB	00H
	DB	00H
	DB	00H
	DB	00H
	DB	00H
	DB	00H
	DB	00H
	DB	00H
	DB	00H
	DB	00H
	DB	00H
	DB	00H
	DB	00H
	DB	00H
	DB	00H
	DB	00H
	DB	00H
	DB	00H
	DB	00H
	DB	00H
	DB	00H
	DB	00H
	DB	00H
	DB	00H
	DB	00H
	DB	00H
	DB	00H
	DB	00H
	DB	00H
	DB	00H
	DB	00H
	DB	00H
	DB	00H
	DB	00H
	DB	00H
	DB	00H
	DB	00H
	DB	00H
	DB	00H
	DB	00H
	DB	00H
	DB	00H
	DB	00H
	DB	00H
	DB	00H
	DB	00H
	DB	00H
	DB	00H
	DB	00H
	DB	00H
	DB	00H
	DB	00H
	DB	00H
	DB	00H
	DB	00H
	DB	00H
	DB	00H
	DB	00H
	DB	00H
	DB	00H
	DB	00H
	DB	00H
	DB	00H
	DB	00H
	DB	00H
	DB	00H
	DB	00H
	DB	00H
	DB	00H
	DB	00H
	DB	00H
	DB	00H
	DB	00H
	DB	00H
	DB	00H
	DB	00H
	DB	00H
	DB	00H
	DB	00H
	DB	00H
	DB	00H
	DB	00H
	DB	00H
	DB	00H
	DB	00H
	DB	00H
	DB	00H
	DB	00H
	DB	00H
	DB	00H
	DB	00H
	DB	00H
	DB	00H
	DB	00H
	DB	00H
	DB	00H
	DB	00H
	DB	00H
	DB	00H
	DB	00H
	DB	00H
	DB	00H
	DB	00H
	DB	00H
	DB	00H
	DB	00H
	DB	00H
	DB	00H
	DB	00H
	DB	00H
	DB	00H
	DB	00H
	DB	00H
	DB	00H
	DB	00H
	DB	00H
	DB	00H
	DB	00H
	DB	00H
	DB	00H
	DB	00H
	DB	00H
	DB	00H
	DB	00H
	DB	00H
	DB	00H
	DB	00H
	DB	00H
	DB	00H
	DB	00H
	DB	00H
	DB	00H
	DB	00H
	DB	00H
	DB	00H
	DB	00H
	DB	00H
	DB	00H
	DB	00H
	DB	00H
	DB	00H
	DB	00H
	DB	00H
	DB	00H
	DB	00H
	DB	00H
	DB	00H
	DB	00H
	DB	00H
	DB	00H
	DB	00H
	DB	00H
	DB	00H
	DB	00H
	DB	00H
	DB	00H
	DB	00H
	DB	00H
	DB	00H
	DB	00H
	DB	00H
	DB	00H
	DB	00H
	DB	00H
	DB	00H
	DB	00H
	DB	00H
	DB	00H
	DB	00H
	DB	00H
	DB	00H
	DB	00H
	DB	00H
	DB	00H
	DB	00H
	DB	00H
	DB	00H
	DB	00H
	DB	00H
	DB	00H
	DB	00H
	DB	00H
	DB	00H
	DB	00H
	DB	00H
	DB	00H
	DB	00H
	DB	00H
	DB	00H
	DB	00H
	DB	00H
	DB	00H
	DB	00H
	DB	00H
	DB	038H
	DB	01cH
	DB	010H
	DB	0ffH
	DB	038H
	DB	01cH
	DB	08H
	DB	0ffH
	DB	038H
	DB	018H
	DB	010H
	DB	0ffH
	DB	038H
	DB	01cH
	DB	010H
	DB	0ffH
	DB	038H
	DB	01cH
	DB	08H
	DB	0ffH
	DB	038H
	DB	018H
	DB	010H
	DB	0ffH
	DB	038H
	DB	01cH
	DB	010H
	DB	0ffH
	DB	038H
	DB	01cH
	DB	08H
	DB	0ffH
	DB	038H
	DB	01cH
	DB	010H
	DB	0ffH
	DB	038H
	DB	01cH
	DB	010H
	DB	0ffH
	DB	038H
	DB	01cH
	DB	08H
	DB	0ffH
	DB	038H
	DB	018H
	DB	010H
	DB	0ffH
	DB	038H
	DB	01cH
	DB	08H
	DB	0ffH
	DB	038H
	DB	01cH
	DB	08H
	DB	0ffH
	DB	030H
	DB	018H
	DB	010H
	DB	0ffH
	DB	038H
	DB	01cH
	DB	08H
	DB	0ffH
	DB	038H
	DB	01cH
	DB	010H
	DB	0ffH
	DB	038H
	DB	018H
	DB	010H
	DB	0ffH
	DB	038H
	DB	01cH
	DB	08H
	DB	0ffH
	DB	030H
	DB	01cH
	DB	010H
	DB	0ffH
	DB	038H
	DB	018H
	DB	08H
	DB	0ffH
	DB	038H
	DB	01cH
	DB	08H
	DB	0ffH
	DB	038H
	DB	01cH
	DB	010H
	DB	0ffH
	DB	038H
	DB	01cH
	DB	08H
	DB	0ffH
	DB	038H
	DB	01cH
	DB	010H
	DB	0ffH
	DB	038H
	DB	01cH
	DB	010H
	DB	0ffH
	DB	038H
	DB	01cH
	DB	08H
	DB	0ffH
	DB	038H
	DB	018H
	DB	08H
	DB	0ffH
	DB	038H
	DB	01cH
	DB	010H
	DB	0ffH
	DB	038H
	DB	01cH
	DB	08H
	DB	0ffH
	DB	038H
	DB	01cH
	DB	08H
	DB	0ffH
	DB	030H
	DB	018H
	DB	010H
	DB	0ffH
	DB	038H
	DB	01cH
	DB	08H
	DB	0ffH
	DB	038H
	DB	01cH
	DB	010H
	DB	0ffH
	DB	038H
	DB	018H
	DB	010H
	DB	0ffH
	DB	038H
	DB	01cH
	DB	08H
	DB	0ffH
	DB	038H
	DB	01cH
	DB	010H
	DB	0ffH
	DB	038H
	DB	018H
	DB	010H
	DB	0ffH
	DB	038H
	DB	01cH
	DB	08H
	DB	0ffH
	DB	038H
	DB	01cH
	DB	010H
	DB	0ffH
	DB	038H
	DB	018H
	DB	08H
	DB	0ffH
	DB	030H
	DB	01cH
	DB	08H
	DB	0ffH
	DB	038H
	DB	018H
	DB	010H
	DB	0ffH
	DB	038H
	DB	01cH
	DB	08H
	DB	0ffH
	DB	038H
	DB	01cH
	DB	010H
	DB	0ffH
	DB	038H
	DB	01cH
	DB	010H
	DB	0ffH
	DB	038H
	DB	01cH
	DB	08H
	DB	0ffH
	DB	00H
	DB	00H
	DB	00H
	DB	00H
	DB	00H
	DB	00H
	DB	00H
	DB	00H
	DB	00H
	DB	00H
	DB	00H
	DB	00H
	DB	00H
	DB	00H
	DB	00H
	DB	00H
	DB	078H
	DB	05cH
	DB	030H
	DB	0ffH
	DB	078H
	DB	060H
	DB	038H
	DB	0ffH
	DB	078H
	DB	060H
	DB	038H
	DB	0ffH
	DB	070H
	DB	05cH
	DB	030H
	DB	0ffH
	DB	078H
	DB	060H
	DB	030H
	DB	0ffH
	DB	070H
	DB	05cH
	DB	038H
	DB	0ffH
	DB	078H
	DB	060H
	DB	030H
	DB	0ffH
	DB	078H
	DB	05cH
	DB	030H
	DB	0ffH
	DB	00H
	DB	00H
	DB	00H
	DB	00H
	DB	00H
	DB	00H
	DB	00H
	DB	00H
	DB	00H
	DB	00H
	DB	00H
	DB	00H
	DB	00H
	DB	00H
	DB	00H
	DB	00H
	DB	00H
	DB	00H
	DB	00H
	DB	00H
	DB	00H
	DB	00H
	DB	00H
	DB	00H
	DB	00H
	DB	00H
	DB	00H
	DB	00H
	DB	00H
	DB	00H
	DB	00H
	DB	00H
	DB	00H
	DB	00H
	DB	00H
	DB	00H
	DB	00H
	DB	00H
	DB	00H
	DB	00H
	DB	00H
	DB	00H
	DB	00H
	DB	00H
	DB	00H
	DB	00H
	DB	00H
	DB	00H
	DB	00H
	DB	00H
	DB	00H
	DB	00H
	DB	00H
	DB	00H
	DB	00H
	DB	00H
	DB	00H
	DB	00H
	DB	00H
	DB	00H
	DB	00H
	DB	00H
	DB	00H
	DB	00H
	DB	00H
	DB	00H
	DB	00H
	DB	00H
	DB	00H
	DB	00H
	DB	00H
	DB	00H
	DB	00H
	DB	00H
	DB	00H
	DB	00H
	DB	00H
	DB	00H
	DB	00H
	DB	00H
	DB	00H
	DB	00H
	DB	00H
	DB	00H
	DB	00H
	DB	00H
	DB	00H
	DB	00H
	DB	00H
	DB	00H
	DB	00H
	DB	00H
	DB	00H
	DB	00H
	DB	00H
	DB	00H
	DB	00H
	DB	00H
	DB	00H
	DB	00H
	DB	00H
	DB	00H
	DB	00H
	DB	00H
	DB	00H
	DB	00H
	DB	00H
	DB	00H
	DB	00H
	DB	00H
	DB	00H
	DB	00H
	DB	00H
	DB	00H
	DB	00H
	DB	00H
	DB	00H
	DB	00H
	DB	00H
	DB	00H
	DB	00H
	DB	00H
	DB	00H
	DB	00H
	DB	00H
	DB	00H
	DB	00H
	DB	00H
	DB	00H
	DB	00H
	DB	00H
	DB	00H
	DB	00H
	DB	00H
	DB	00H
	DB	00H
	DB	00H
	DB	00H
	DB	00H
	DB	00H
	DB	00H
	DB	00H
	DB	00H
	DB	00H
	DB	00H
	DB	00H
	DB	00H
	DB	00H
	DB	00H
	DB	00H
	DB	00H
	DB	00H
	DB	00H
	DB	00H
	DB	00H
	DB	00H
	DB	00H
	DB	00H
	DB	00H
	DB	00H
	DB	00H
	DB	00H
	DB	00H
	DB	00H
	DB	00H
	DB	00H
	DB	00H
	DB	00H
	DB	00H
	DB	00H
	DB	00H
	DB	00H
	DB	00H
	DB	00H
	DB	00H
	DB	00H
	DB	00H
	DB	00H
	DB	00H
	DB	00H
	DB	00H
	DB	00H
	DB	00H
	DB	00H
	DB	00H
	DB	00H
	DB	00H
	DB	00H
	DB	00H
	DB	00H
	DB	00H
	DB	00H
	DB	00H
	DB	00H
	DB	00H
	DB	00H
	DB	00H
	DB	00H
	DB	00H
	DB	00H
	DB	00H
	DB	00H
	DB	00H
	DB	00H
	DB	038H
	DB	01cH
	DB	08H
	DB	0ffH
	DB	038H
	DB	01cH
	DB	010H
	DB	0ffH
	DB	038H
	DB	01cH
	DB	08H
	DB	0ffH
	DB	038H
	DB	01cH
	DB	08H
	DB	0ffH
	DB	038H
	DB	01cH
	DB	010H
	DB	0ffH
	DB	030H
	DB	01cH
	DB	08H
	DB	0ffH
	DB	038H
	DB	01cH
	DB	08H
	DB	0ffH
	DB	038H
	DB	018H
	DB	08H
	DB	0ffH
	DB	038H
	DB	01cH
	DB	010H
	DB	0ffH
	DB	038H
	DB	01cH
	DB	08H
	DB	0ffH
	DB	038H
	DB	01cH
	DB	010H
	DB	0ffH
	DB	038H
	DB	01cH
	DB	010H
	DB	0ffH
	DB	038H
	DB	01cH
	DB	08H
	DB	0ffH
	DB	038H
	DB	01cH
	DB	010H
	DB	0ffH
	DB	038H
	DB	018H
	DB	08H
	DB	0ffH
	DB	038H
	DB	01cH
	DB	08H
	DB	0ffH
	DB	038H
	DB	01cH
	DB	010H
	DB	0ffH
	DB	038H
	DB	01cH
	DB	08H
	DB	0ffH
	DB	038H
	DB	01cH
	DB	010H
	DB	0ffH
	DB	038H
	DB	01cH
	DB	010H
	DB	0ffH
	DB	038H
	DB	018H
	DB	08H
	DB	0ffH
	DB	038H
	DB	01cH
	DB	010H
	DB	0ffH
	DB	038H
	DB	01cH
	DB	08H
	DB	0ffH
	DB	038H
	DB	018H
	DB	08H
	DB	0ffH
	DB	038H
	DB	01cH
	DB	010H
	DB	0ffH
	DB	038H
	DB	01cH
	DB	08H
	DB	0ffH
	DB	030H
	DB	01cH
	DB	010H
	DB	0ffH
	DB	038H
	DB	01cH
	DB	010H
	DB	0ffH
	DB	038H
	DB	01cH
	DB	08H
	DB	0ffH
	DB	038H
	DB	01cH
	DB	010H
	DB	0ffH
	DB	038H
	DB	01cH
	DB	08H
	DB	0ffH
	DB	038H
	DB	01cH
	DB	010H
	DB	0ffH
	DB	038H
	DB	01cH
	DB	08H
	DB	0ffH
	DB	030H
	DB	01cH
	DB	08H
	DB	0ffH
	DB	038H
	DB	01cH
	DB	010H
	DB	0ffH
	DB	038H
	DB	018H
	DB	08H
	DB	0ffH
	DB	038H
	DB	01cH
	DB	08H
	DB	0ffH
	DB	038H
	DB	01cH
	DB	010H
	DB	0ffH
	DB	038H
	DB	01cH
	DB	08H
	DB	0ffH
	DB	038H
	DB	01cH
	DB	010H
	DB	0ffH
	DB	038H
	DB	01cH
	DB	010H
	DB	0ffH
	DB	038H
	DB	018H
	DB	08H
	DB	0ffH
	DB	038H
	DB	01cH
	DB	08H
	DB	0ffH
	DB	038H
	DB	01cH
	DB	010H
	DB	0ffH
	DB	030H
	DB	018H
	DB	08H
	DB	0ffH
	DB	038H
	DB	018H
	DB	08H
	DB	0ffH
	DB	038H
	DB	01cH
	DB	010H
	DB	0ffH
	DB	00H
	DB	00H
	DB	00H
	DB	00H
	DB	00H
	DB	00H
	DB	00H
	DB	00H
	DB	00H
	DB	00H
	DB	00H
	DB	00H
	DB	00H
	DB	00H
	DB	00H
	DB	00H
	DB	070H
	DB	060H
	DB	030H
	DB	0ffH
	DB	070H
	DB	05cH
	DB	038H
	DB	0ffH
	DB	078H
	DB	05cH
	DB	030H
	DB	0ffH
	DB	078H
	DB	060H
	DB	038H
	DB	0ffH
	DB	070H
	DB	05cH
	DB	030H
	DB	0ffH
	DB	078H
	DB	060H
	DB	038H
	DB	0ffH
	DB	070H
	DB	05cH
	DB	038H
	DB	0ffH
	DB	070H
	DB	060H
	DB	030H
	DB	0ffH
	DB	00H
	DB	00H
	DB	00H
	DB	00H
	DB	00H
	DB	00H
	DB	00H
	DB	00H
	DB	00H
	DB	00H
	DB	00H
	DB	00H
	DB	00H
	DB	00H
	DB	00H
	DB	00H
	DB	00H
	DB	00H
	DB	00H
	DB	00H
	DB	00H
	DB	00H
	DB	00H
	DB	00H
	DB	00H
	DB	00H
	DB	00H
	DB	00H
	DB	00H
	DB	00H
	DB	00H
	DB	00H
	DB	00H
	DB	00H
	DB	00H
	DB	00H
	DB	00H
	DB	00H
	DB	00H
	DB	00H
	DB	00H
	DB	00H
	DB	00H
	DB	00H
	DB	00H
	DB	00H
	DB	00H
	DB	00H
	DB	00H
	DB	00H
	DB	00H
	DB	00H
	DB	00H
	DB	00H
	DB	00H
	DB	00H
	DB	00H
	DB	00H
	DB	00H
	DB	00H
	DB	00H
	DB	00H
	DB	00H
	DB	00H
	DB	00H
	DB	00H
	DB	00H
	DB	00H
	DB	00H
	DB	00H
	DB	00H
	DB	00H
	DB	00H
	DB	00H
	DB	00H
	DB	00H
	DB	00H
	DB	00H
	DB	00H
	DB	00H
	DB	00H
	DB	00H
	DB	00H
	DB	00H
	DB	00H
	DB	00H
	DB	00H
	DB	00H
	DB	00H
	DB	00H
	DB	00H
	DB	00H
	DB	00H
	DB	00H
	DB	00H
	DB	00H
	DB	00H
	DB	00H
	DB	00H
	DB	00H
	DB	00H
	DB	00H
	DB	00H
	DB	00H
	DB	00H
	DB	00H
	DB	00H
	DB	00H
	DB	00H
	DB	00H
	DB	00H
	DB	00H
	DB	00H
	DB	00H
	DB	00H
	DB	00H
	DB	00H
	DB	00H
	DB	00H
	DB	00H
	DB	00H
	DB	00H
	DB	00H
	DB	00H
	DB	00H
	DB	00H
	DB	00H
	DB	00H
	DB	00H
	DB	00H
	DB	00H
	DB	00H
	DB	00H
	DB	00H
	DB	00H
	DB	00H
	DB	00H
	DB	00H
	DB	00H
	DB	00H
	DB	00H
	DB	00H
	DB	00H
	DB	00H
	DB	00H
	DB	00H
	DB	00H
	DB	00H
	DB	00H
	DB	00H
	DB	00H
	DB	00H
	DB	00H
	DB	00H
	DB	00H
	DB	00H
	DB	00H
	DB	00H
	DB	00H
	DB	00H
	DB	00H
	DB	00H
	DB	00H
	DB	00H
	DB	00H
	DB	00H
	DB	00H
	DB	00H
	DB	00H
	DB	00H
	DB	00H
	DB	00H
	DB	00H
	DB	00H
	DB	00H
	DB	00H
	DB	00H
	DB	00H
	DB	00H
	DB	00H
	DB	00H
	DB	00H
	DB	00H
	DB	00H
	DB	00H
	DB	00H
	DB	00H
	DB	00H
	DB	00H
	DB	00H
	DB	00H
	DB	00H
	DB	00H
	DB	00H
	DB	00H
	DB	00H
	DB	00H
	DB	00H
	DB	00H
	DB	00H
	DB	00H
	DB	00H
	DB	00H
	DB	00H
	DB	038H
	DB	018H
	DB	010H
	DB	0ffH
	DB	038H
	DB	01cH
	DB	08H
	DB	0ffH
	DB	030H
	DB	01cH
	DB	010H
	DB	0ffH
	DB	038H
	DB	018H
	DB	010H
	DB	0ffH
	DB	038H
	DB	01cH
	DB	08H
	DB	0ffH
	DB	038H
	DB	01cH
	DB	010H
	DB	0ffH
	DB	038H
	DB	018H
	DB	010H
	DB	0ffH
	DB	030H
	DB	01cH
	DB	08H
	DB	0ffH
	DB	038H
	DB	01cH
	DB	08H
	DB	0ffH
	DB	038H
	DB	018H
	DB	010H
	DB	0ffH
	DB	030H
	DB	018H
	DB	08H
	DB	0ffH
	DB	038H
	DB	01cH
	DB	08H
	DB	0ffH
	DB	038H
	DB	01cH
	DB	010H
	DB	0ffH
	DB	030H
	DB	018H
	DB	010H
	DB	0ffH
	DB	038H
	DB	01cH
	DB	08H
	DB	0ffH
	DB	038H
	DB	01cH
	DB	010H
	DB	0ffH
	DB	030H
	DB	018H
	DB	08H
	DB	0ffH
	DB	038H
	DB	01cH
	DB	08H
	DB	0ffH
	DB	038H
	DB	01cH
	DB	010H
	DB	0ffH
	DB	038H
	DB	018H
	DB	08H
	DB	0ffH
	DB	038H
	DB	01cH
	DB	010H
	DB	0ffH
	DB	030H
	DB	01cH
	DB	010H
	DB	0ffH
	DB	038H
	DB	01cH
	DB	08H
	DB	0ffH
	DB	038H
	DB	018H
	DB	010H
	DB	0ffH
	DB	030H
	DB	01cH
	DB	08H
	DB	0ffH
	DB	038H
	DB	018H
	DB	08H
	DB	0ffH
	DB	038H
	DB	018H
	DB	010H
	DB	0ffH
	DB	038H
	DB	01cH
	DB	08H
	DB	0ffH
	DB	038H
	DB	018H
	DB	010H
	DB	0ffH
	DB	030H
	DB	018H
	DB	08H
	DB	0ffH
	DB	038H
	DB	01cH
	DB	010H
	DB	0ffH
	DB	038H
	DB	01cH
	DB	010H
	DB	0ffH
	DB	038H
	DB	018H
	DB	08H
	DB	0ffH
	DB	038H
	DB	01cH
	DB	010H
	DB	0ffH
	DB	038H
	DB	01cH
	DB	08H
	DB	0ffH
	DB	030H
	DB	01cH
	DB	010H
	DB	0ffH
	DB	038H
	DB	018H
	DB	08H
	DB	0ffH
	DB	038H
	DB	01cH
	DB	08H
	DB	0ffH
	DB	030H
	DB	01cH
	DB	010H
	DB	0ffH
	DB	038H
	DB	018H
	DB	08H
	DB	0ffH
	DB	038H
	DB	01cH
	DB	010H
	DB	0ffH
	DB	038H
	DB	01cH
	DB	010H
	DB	0ffH
	DB	038H
	DB	01cH
	DB	08H
	DB	0ffH
	DB	038H
	DB	01cH
	DB	010H
	DB	0ffH
	DB	038H
	DB	01cH
	DB	010H
	DB	0ffH
	DB	038H
	DB	01cH
	DB	08H
	DB	0ffH
	DB	038H
	DB	01cH
	DB	010H
	DB	0ffH
	DB	00H
	DB	00H
	DB	00H
	DB	00H
	DB	00H
	DB	00H
	DB	00H
	DB	00H
	DB	00H
	DB	00H
	DB	00H
	DB	00H
	DB	00H
	DB	00H
	DB	00H
	DB	00H
	DB	070H
	DB	05cH
	DB	038H
	DB	0ffH
	DB	070H
	DB	060H
	DB	030H
	DB	0ffH
	DB	078H
	DB	05cH
	DB	030H
	DB	0ffH
	DB	070H
	DB	05cH
	DB	038H
	DB	0ffH
	DB	070H
	DB	05cH
	DB	030H
	DB	0ffH
	DB	078H
	DB	060H
	DB	038H
	DB	0ffH
	DB	078H
	DB	05cH
	DB	038H
	DB	0ffH
	DB	070H
	DB	060H
	DB	030H
	DB	0ffH
	DB	00H
	DB	00H
	DB	00H
	DB	00H
	DB	00H
	DB	00H
	DB	00H
	DB	00H
	DB	00H
	DB	00H
	DB	00H
	DB	00H
	DB	00H
	DB	00H
	DB	00H
	DB	00H
	DB	00H
	DB	00H
	DB	00H
	DB	00H
	DB	00H
	DB	00H
	DB	00H
	DB	00H
	DB	00H
	DB	00H
	DB	00H
	DB	00H
	DB	00H
	DB	00H
	DB	00H
	DB	00H
	DB	00H
	DB	00H
	DB	00H
	DB	00H
	DB	00H
	DB	00H
	DB	00H
	DB	00H
	DB	00H
	DB	00H
	DB	00H
	DB	00H
	DB	00H
	DB	00H
	DB	00H
	DB	00H
	DB	00H
	DB	00H
	DB	00H
	DB	00H
	DB	00H
	DB	00H
	DB	00H
	DB	00H
	DB	00H
	DB	00H
	DB	00H
	DB	00H
	DB	00H
	DB	00H
	DB	00H
	DB	00H
	DB	00H
	DB	00H
	DB	00H
	DB	00H
	DB	00H
	DB	00H
	DB	00H
	DB	00H
	DB	00H
	DB	00H
	DB	00H
	DB	00H
	DB	00H
	DB	00H
	DB	00H
	DB	00H
	DB	00H
	DB	00H
	DB	00H
	DB	00H
	DB	00H
	DB	00H
	DB	00H
	DB	00H
	DB	00H
	DB	00H
	DB	00H
	DB	00H
	DB	00H
	DB	00H
	DB	00H
	DB	00H
	DB	00H
	DB	00H
	DB	00H
	DB	00H
	DB	00H
	DB	00H
	DB	00H
	DB	00H
	DB	00H
	DB	00H
	DB	00H
	DB	00H
	DB	00H
	DB	00H
	DB	00H
	DB	00H
	DB	00H
	DB	00H
	DB	00H
	DB	00H
	DB	00H
	DB	00H
	DB	00H
	DB	00H
	DB	00H
	DB	00H
	DB	00H
	DB	00H
	DB	00H
	DB	00H
	DB	00H
	DB	00H
	DB	00H
	DB	00H
	DB	00H
	DB	00H
	DB	00H
	DB	00H
	DB	00H
	DB	00H
	DB	00H
	DB	00H
	DB	00H
	DB	00H
	DB	00H
	DB	00H
	DB	00H
	DB	00H
	DB	00H
	DB	00H
	DB	00H
	DB	00H
	DB	00H
	DB	00H
	DB	00H
	DB	00H
	DB	00H
	DB	00H
	DB	00H
	DB	00H
	DB	00H
	DB	00H
	DB	00H
	DB	00H
	DB	00H
	DB	00H
	DB	00H
	DB	00H
	DB	00H
	DB	00H
	DB	00H
	DB	00H
	DB	00H
	DB	00H
	DB	00H
	DB	00H
	DB	00H
	DB	00H
	DB	00H
	DB	00H
	DB	00H
	DB	00H
	DB	00H
	DB	00H
	DB	00H
	DB	00H
	DB	00H
	DB	00H
	DB	00H
	DB	00H
	DB	00H
	DB	00H
	DB	00H
	DB	00H
	DB	00H
	DB	00H
	DB	00H
	DB	00H
	DB	00H
	DB	00H
	DB	00H
	DB	00H
	DB	00H
	DB	00H
	DB	00H
	DB	00H
	DB	00H
	DB	00H
	DB	038H
	DB	01cH
	DB	08H
	DB	0ffH
	DB	038H
	DB	01cH
	DB	010H
	DB	0ffH
	DB	038H
	DB	018H
	DB	08H
	DB	0ffH
	DB	038H
	DB	01cH
	DB	08H
	DB	0ffH
	DB	038H
	DB	01cH
	DB	010H
	DB	0ffH
	DB	038H
	DB	018H
	DB	08H
	DB	0ffH
	DB	038H
	DB	01cH
	DB	010H
	DB	0ffH
	DB	038H
	DB	01cH
	DB	010H
	DB	0ffH
	DB	038H
	DB	01cH
	DB	08H
	DB	0ffH
	DB	038H
	DB	01cH
	DB	010H
	DB	0ffH
	DB	038H
	DB	01cH
	DB	010H
	DB	0ffH
	DB	038H
	DB	018H
	DB	08H
	DB	0ffH
	DB	038H
	DB	01cH
	DB	010H
	DB	0ffH
	DB	038H
	DB	01cH
	DB	08H
	DB	0ffH
	DB	038H
	DB	01cH
	DB	010H
	DB	0ffH
	DB	038H
	DB	01cH
	DB	010H
	DB	0ffH
	DB	038H
	DB	018H
	DB	08H
	DB	0ffH
	DB	038H
	DB	01cH
	DB	010H
	DB	0ffH
	DB	030H
	DB	01cH
	DB	08H
	DB	0ffH
	DB	038H
	DB	01cH
	DB	08H
	DB	0ffH
	DB	038H
	DB	01cH
	DB	010H
	DB	0ffH
	DB	038H
	DB	01cH
	DB	08H
	DB	0ffH
	DB	038H
	DB	018H
	DB	010H
	DB	0ffH
	DB	038H
	DB	01cH
	DB	010H
	DB	0ffH
	DB	038H
	DB	01cH
	DB	08H
	DB	0ffH
	DB	038H
	DB	01cH
	DB	010H
	DB	0ffH
	DB	038H
	DB	01cH
	DB	08H
	DB	0ffH
	DB	038H
	DB	01cH
	DB	010H
	DB	0ffH
	DB	038H
	DB	01cH
	DB	08H
	DB	0ffH
	DB	038H
	DB	01cH
	DB	08H
	DB	0ffH
	DB	038H
	DB	01cH
	DB	010H
	DB	0ffH
	DB	038H
	DB	018H
	DB	08H
	DB	0ffH
	DB	038H
	DB	01cH
	DB	010H
	DB	0ffH
	DB	038H
	DB	01cH
	DB	08H
	DB	0ffH
	DB	038H
	DB	018H
	DB	010H
	DB	0ffH
	DB	038H
	DB	01cH
	DB	010H
	DB	0ffH
	DB	038H
	DB	01cH
	DB	08H
	DB	0ffH
	DB	038H
	DB	01cH
	DB	010H
	DB	0ffH
	DB	038H
	DB	018H
	DB	010H
	DB	0ffH
	DB	038H
	DB	01cH
	DB	08H
	DB	0ffH
	DB	030H
	DB	01cH
	DB	08H
	DB	0ffH
	DB	038H
	DB	018H
	DB	010H
	DB	0ffH
	DB	038H
	DB	01cH
	DB	08H
	DB	0ffH
	DB	030H
	DB	01cH
	DB	08H
	DB	0ffH
	DB	038H
	DB	018H
	DB	010H
	DB	0ffH
	DB	038H
	DB	01cH
	DB	08H
	DB	0ffH
	DB	038H
	DB	01cH
	DB	08H
	DB	0ffH
	DB	00H
	DB	00H
	DB	00H
	DB	00H
	DB	00H
	DB	00H
	DB	00H
	DB	00H
	DB	00H
	DB	00H
	DB	00H
	DB	00H
	DB	00H
	DB	00H
	DB	00H
	DB	00H
	DB	078H
	DB	05cH
	DB	038H
	DB	0ffH
	DB	078H
	DB	060H
	DB	030H
	DB	0ffH
	DB	070H
	DB	060H
	DB	038H
	DB	0ffH
	DB	070H
	DB	05cH
	DB	030H
	DB	0ffH
	DB	070H
	DB	060H
	DB	030H
	DB	0ffH
	DB	078H
	DB	05cH
	DB	030H
	DB	0ffH
	DB	078H
	DB	060H
	DB	038H
	DB	0ffH
	DB	070H
	DB	05cH
	DB	038H
	DB	0ffH
	DB	00H
	DB	00H
	DB	00H
	DB	00H
	DB	00H
	DB	00H
	DB	00H
	DB	00H
	DB	00H
	DB	00H
	DB	00H
	DB	00H
	DB	00H
	DB	00H
	DB	00H
	DB	00H
	DB	00H
	DB	00H
	DB	00H
	DB	00H
	DB	00H
	DB	00H
	DB	00H
	DB	00H
	DB	00H
	DB	00H
	DB	00H
	DB	00H
	DB	00H
	DB	00H
	DB	00H
	DB	00H
	DB	00H
	DB	00H
	DB	00H
	DB	00H
	DB	00H
	DB	00H
	DB	00H
	DB	00H
	DB	00H
	DB	00H
	DB	00H
	DB	00H
	DB	00H
	DB	00H
	DB	00H
	DB	00H
	DB	00H
	DB	00H
	DB	00H
	DB	00H
	DB	00H
	DB	00H
	DB	00H
	DB	00H
	DB	00H
	DB	00H
	DB	00H
	DB	00H
	DB	00H
	DB	00H
	DB	00H
	DB	00H
	DB	00H
	DB	00H
	DB	00H
	DB	00H
	DB	00H
	DB	00H
	DB	00H
	DB	00H
	DB	00H
	DB	00H
	DB	00H
	DB	00H
	DB	00H
	DB	00H
	DB	00H
	DB	00H
	DB	00H
	DB	00H
	DB	00H
	DB	00H
	DB	00H
	DB	00H
	DB	00H
	DB	00H
	DB	00H
	DB	00H
	DB	00H
	DB	00H
	DB	00H
	DB	00H
	DB	00H
	DB	00H
	DB	00H
	DB	00H
	DB	00H
	DB	00H
	DB	00H
	DB	00H
	DB	00H
	DB	00H
	DB	00H
	DB	00H
	DB	00H
	DB	00H
	DB	00H
	DB	00H
	DB	00H
	DB	00H
	DB	00H
	DB	00H
	DB	00H
	DB	00H
	DB	00H
	DB	00H
	DB	00H
	DB	00H
	DB	00H
	DB	00H
	DB	00H
	DB	00H
	DB	00H
	DB	00H
	DB	00H
	DB	00H
	DB	00H
	DB	00H
	DB	00H
	DB	00H
	DB	00H
	DB	00H
	DB	00H
	DB	00H
	DB	00H
	DB	00H
	DB	00H
	DB	00H
	DB	00H
	DB	00H
	DB	00H
	DB	00H
	DB	00H
	DB	00H
	DB	00H
	DB	00H
	DB	00H
	DB	00H
	DB	00H
	DB	00H
	DB	00H
	DB	00H
	DB	00H
	DB	00H
	DB	00H
	DB	00H
	DB	00H
	DB	00H
	DB	00H
	DB	00H
	DB	00H
	DB	00H
	DB	00H
	DB	00H
	DB	00H
	DB	00H
	DB	00H
	DB	00H
	DB	00H
	DB	00H
	DB	00H
	DB	00H
	DB	00H
	DB	00H
	DB	00H
	DB	00H
	DB	00H
	DB	00H
	DB	00H
	DB	00H
	DB	00H
	DB	00H
	DB	00H
	DB	00H
	DB	00H
	DB	00H
	DB	00H
	DB	00H
	DB	00H
	DB	00H
	DB	00H
	DB	00H
	DB	00H
	DB	00H
	DB	00H
	DB	00H
	DB	00H
	DB	00H
	DB	00H
	DB	00H
	DB	00H
	DB	00H
	DB	038H
	DB	01cH
	DB	08H
	DB	0ffH
	DB	038H
	DB	01cH
	DB	010H
	DB	0ffH
	DB	038H
	DB	01cH
	DB	010H
	DB	0ffH
	DB	038H
	DB	01cH
	DB	08H
	DB	0ffH
	DB	030H
	DB	01cH
	DB	010H
	DB	0ffH
	DB	038H
	DB	01cH
	DB	08H
	DB	0ffH
	DB	038H
	DB	01cH
	DB	08H
	DB	0ffH
	DB	038H
	DB	018H
	DB	010H
	DB	0ffH
	DB	038H
	DB	01cH
	DB	08H
	DB	0ffH
	DB	038H
	DB	01cH
	DB	08H
	DB	0ffH
	DB	038H
	DB	01cH
	DB	010H
	DB	0ffH
	DB	030H
	DB	01cH
	DB	08H
	DB	0ffH
	DB	038H
	DB	018H
	DB	08H
	DB	0ffH
	DB	038H
	DB	01cH
	DB	010H
	DB	0ffH
	DB	038H
	DB	01cH
	DB	08H
	DB	0ffH
	DB	038H
	DB	01cH
	DB	08H
	DB	0ffH
	DB	038H
	DB	01cH
	DB	010H
	DB	0ffH
	DB	038H
	DB	018H
	DB	010H
	DB	0ffH
	DB	038H
	DB	01cH
	DB	08H
	DB	0ffH
	DB	038H
	DB	01cH
	DB	010H
	DB	0ffH
	DB	038H
	DB	018H
	DB	08H
	DB	0ffH
	DB	038H
	DB	01cH
	DB	08H
	DB	0ffH
	DB	038H
	DB	01cH
	DB	010H
	DB	0ffH
	DB	038H
	DB	01cH
	DB	08H
	DB	0ffH
	DB	038H
	DB	01cH
	DB	010H
	DB	0ffH
	DB	038H
	DB	01cH
	DB	08H
	DB	0ffH
	DB	030H
	DB	01cH
	DB	010H
	DB	0ffH
	DB	038H
	DB	018H
	DB	010H
	DB	0ffH
	DB	038H
	DB	01cH
	DB	08H
	DB	0ffH
	DB	038H
	DB	01cH
	DB	010H
	DB	0ffH
	DB	038H
	DB	01cH
	DB	08H
	DB	0ffH
	DB	030H
	DB	01cH
	DB	08H
	DB	0ffH
	DB	038H
	DB	01cH
	DB	010H
	DB	0ffH
	DB	038H
	DB	01cH
	DB	08H
	DB	0ffH
	DB	038H
	DB	018H
	DB	08H
	DB	0ffH
	DB	038H
	DB	01cH
	DB	010H
	DB	0ffH
	DB	038H
	DB	01cH
	DB	08H
	DB	0ffH
	DB	038H
	DB	01cH
	DB	010H
	DB	0ffH
	DB	038H
	DB	01cH
	DB	08H
	DB	0ffH
	DB	038H
	DB	01cH
	DB	08H
	DB	0ffH
	DB	038H
	DB	01cH
	DB	010H
	DB	0ffH
	DB	038H
	DB	018H
	DB	010H
	DB	0ffH
	DB	038H
	DB	01cH
	DB	08H
	DB	0ffH
	DB	038H
	DB	01cH
	DB	010H
	DB	0ffH
	DB	038H
	DB	018H
	DB	010H
	DB	0ffH
	DB	038H
	DB	01cH
	DB	08H
	DB	0ffH
	DB	030H
	DB	01cH
	DB	010H
	DB	0ffH
	DB	00H
	DB	00H
	DB	00H
	DB	00H
	DB	00H
	DB	00H
	DB	00H
	DB	00H
	DB	00H
	DB	00H
	DB	00H
	DB	00H
	DB	00H
	DB	00H
	DB	00H
	DB	00H
	DB	070H
	DB	05cH
	DB	030H
	DB	0ffH
	DB	078H
	DB	060H
	DB	038H
	DB	0ffH
	DB	078H
	DB	060H
	DB	038H
	DB	0ffH
	DB	070H
	DB	05cH
	DB	030H
	DB	0ffH
	DB	070H
	DB	05cH
	DB	038H
	DB	0ffH
	DB	070H
	DB	060H
	DB	030H
	DB	0ffH
	DB	078H
	DB	05cH
	DB	030H
	DB	0ffH
	DB	078H
	DB	060H
	DB	038H
	DB	0ffH
	DB	00H
	DB	00H
	DB	00H
	DB	00H
	DB	00H
	DB	00H
	DB	00H
	DB	00H
	DB	00H
	DB	00H
	DB	00H
	DB	00H
	DB	00H
	DB	00H
	DB	00H
	DB	00H
	DB	00H
	DB	00H
	DB	00H
	DB	00H
	DB	00H
	DB	00H
	DB	00H
	DB	00H
	DB	00H
	DB	00H
	DB	00H
	DB	00H
	DB	00H
	DB	00H
	DB	00H
	DB	00H
	DB	00H
	DB	00H
	DB	00H
	DB	00H
	DB	00H
	DB	00H
	DB	00H
	DB	00H
	DB	00H
	DB	00H
	DB	00H
	DB	00H
	DB	00H
	DB	00H
	DB	00H
	DB	00H
	DB	00H
	DB	00H
	DB	00H
	DB	00H
	DB	00H
	DB	00H
	DB	00H
	DB	00H
	DB	00H
	DB	00H
	DB	00H
	DB	00H
	DB	00H
	DB	00H
	DB	00H
	DB	00H
	DB	00H
	DB	00H
	DB	00H
	DB	00H
	DB	00H
	DB	00H
	DB	00H
	DB	00H
	DB	00H
	DB	00H
	DB	00H
	DB	00H
	DB	00H
	DB	00H
	DB	00H
	DB	00H
	DB	00H
	DB	00H
	DB	00H
	DB	00H
	DB	00H
	DB	00H
	DB	00H
	DB	00H
	DB	00H
	DB	00H
	DB	00H
	DB	00H
	DB	00H
	DB	00H
	DB	00H
	DB	00H
	DB	00H
	DB	00H
	DB	00H
	DB	00H
	DB	00H
	DB	00H
	DB	00H
	DB	00H
	DB	00H
	DB	00H
	DB	00H
	DB	00H
	DB	00H
	DB	00H
	DB	00H
	DB	00H
	DB	00H
	DB	00H
	DB	00H
	DB	00H
	DB	00H
	DB	00H
	DB	00H
	DB	00H
	DB	00H
	DB	00H
	DB	00H
	DB	00H
	DB	00H
	DB	00H
	DB	00H
	DB	00H
	DB	00H
	DB	00H
	DB	00H
	DB	00H
	DB	00H
	DB	00H
	DB	00H
	DB	00H
	DB	00H
	DB	00H
	DB	00H
	DB	00H
	DB	00H
	DB	00H
	DB	00H
	DB	00H
	DB	00H
	DB	00H
	DB	00H
	DB	00H
	DB	00H
	DB	00H
	DB	00H
	DB	00H
	DB	00H
	DB	00H
	DB	00H
	DB	00H
	DB	00H
	DB	00H
	DB	00H
	DB	00H
	DB	00H
	DB	00H
	DB	00H
	DB	00H
	DB	00H
	DB	00H
	DB	00H
	DB	00H
	DB	00H
	DB	00H
	DB	00H
	DB	00H
	DB	00H
	DB	00H
	DB	00H
	DB	00H
	DB	00H
	DB	00H
	DB	00H
	DB	00H
	DB	00H
	DB	00H
	DB	00H
	DB	00H
	DB	00H
	DB	00H
	DB	00H
	DB	00H
	DB	00H
	DB	00H
	DB	00H
	DB	00H
	DB	00H
	DB	00H
	DB	00H
	DB	00H
	DB	00H
	DB	00H
	DB	00H
	DB	00H
	DB	00H
	DB	00H
	DB	00H
	DB	00H
	DB	038H
	DB	018H
	DB	010H
	DB	0ffH
	DB	030H
	DB	01cH
	DB	08H
	DB	0ffH
	DB	038H
	DB	018H
	DB	08H
	DB	0ffH
	DB	038H
	DB	018H
	DB	010H
	DB	0ffH
	DB	038H
	DB	01cH
	DB	010H
	DB	0ffH
	DB	038H
	DB	01cH
	DB	08H
	DB	0ffH
	DB	038H
	DB	018H
	DB	010H
	DB	0ffH
	DB	030H
	DB	01cH
	DB	010H
	DB	0ffH
	DB	038H
	DB	01cH
	DB	08H
	DB	0ffH
	DB	038H
	DB	018H
	DB	010H
	DB	0ffH
	DB	038H
	DB	01cH
	DB	010H
	DB	0ffH
	DB	038H
	DB	01cH
	DB	08H
	DB	0ffH
	DB	038H
	DB	01cH
	DB	010H
	DB	0ffH
	DB	038H
	DB	018H
	DB	010H
	DB	0ffH
	DB	030H
	DB	01cH
	DB	08H
	DB	0ffH
	DB	038H
	DB	01cH
	DB	08H
	DB	0ffH
	DB	038H
	DB	018H
	DB	010H
	DB	0ffH
	DB	038H
	DB	01cH
	DB	08H
	DB	0ffH
	DB	038H
	DB	01cH
	DB	010H
	DB	0ffH
	DB	038H
	DB	018H
	DB	010H
	DB	0ffH
	DB	030H
	DB	01cH
	DB	08H
	DB	0ffH
	DB	038H
	DB	01cH
	DB	010H
	DB	0ffH
	DB	038H
	DB	018H
	DB	08H
	DB	0ffH
	DB	030H
	DB	01cH
	DB	08H
	DB	0ffH
	DB	038H
	DB	018H
	DB	010H
	DB	0ffH
	DB	038H
	DB	018H
	DB	08H
	DB	0ffH
	DB	038H
	DB	01cH
	DB	08H
	DB	0ffH
	DB	038H
	DB	01cH
	DB	010H
	DB	0ffH
	DB	038H
	DB	018H
	DB	08H
	DB	0ffH
	DB	030H
	DB	01cH
	DB	010H
	DB	0ffH
	DB	038H
	DB	018H
	DB	010H
	DB	0ffH
	DB	038H
	DB	01cH
	DB	08H
	DB	0ffH
	DB	038H
	DB	01cH
	DB	010H
	DB	0ffH
	DB	038H
	DB	018H
	DB	010H
	DB	0ffH
	DB	030H
	DB	01cH
	DB	08H
	DB	0ffH
	DB	038H
	DB	01cH
	DB	010H
	DB	0ffH
	DB	038H
	DB	018H
	DB	08H
	DB	0ffH
	DB	030H
	DB	018H
	DB	010H
	DB	0ffH
	DB	038H
	DB	01cH
	DB	010H
	DB	0ffH
	DB	038H
	DB	01cH
	DB	08H
	DB	0ffH
	DB	038H
	DB	018H
	DB	010H
	DB	0ffH
	DB	038H
	DB	01cH
	DB	08H
	DB	0ffH
	DB	038H
	DB	01cH
	DB	08H
	DB	0ffH
	DB	038H
	DB	01cH
	DB	010H
	DB	0ffH
	DB	038H
	DB	01cH
	DB	08H
	DB	0ffH
	DB	038H
	DB	018H
	DB	010H
	DB	0ffH
	DB	038H
	DB	01cH
	DB	010H
	DB	0ffH
	DB	00H
	DB	00H
	DB	00H
	DB	00H
	DB	00H
	DB	00H
	DB	00H
	DB	00H
	DB	00H
	DB	00H
	DB	00H
	DB	00H
	DB	00H
	DB	00H
	DB	00H
	DB	00H
	DB	070H
	DB	05cH
	DB	030H
	DB	0ffH
	DB	070H
	DB	060H
	DB	038H
	DB	0ffH
	DB	078H
	DB	05cH
	DB	030H
	DB	0ffH
	DB	078H
	DB	05cH
	DB	038H
	DB	0ffH
	DB	078H
	DB	05cH
	DB	038H
	DB	0ffH
	DB	070H
	DB	060H
	DB	038H
	DB	0ffH
	DB	070H
	DB	05cH
	DB	030H
	DB	0ffH
	DB	078H
	DB	05cH
	DB	030H
	DB	0ffH
	DB	00H
	DB	00H
	DB	00H
	DB	00H
	DB	00H
	DB	00H
	DB	00H
	DB	00H
	DB	00H
	DB	00H
	DB	00H
	DB	00H
	DB	00H
	DB	00H
	DB	00H
	DB	00H
	DB	00H
	DB	00H
	DB	00H
	DB	00H
	DB	00H
	DB	00H
	DB	00H
	DB	00H
	DB	00H
	DB	00H
	DB	00H
	DB	00H
	DB	00H
	DB	00H
	DB	00H
	DB	00H
	DB	00H
	DB	00H
	DB	00H
	DB	00H
	DB	00H
	DB	00H
	DB	00H
	DB	00H
	DB	00H
	DB	00H
	DB	00H
	DB	00H
	DB	00H
	DB	00H
	DB	00H
	DB	00H
	DB	00H
	DB	00H
	DB	00H
	DB	00H
	DB	00H
	DB	00H
	DB	00H
	DB	00H
	DB	00H
	DB	00H
	DB	00H
	DB	00H
	DB	00H
	DB	00H
	DB	00H
	DB	00H
	DB	00H
	DB	00H
	DB	00H
	DB	00H
	DB	00H
	DB	00H
	DB	00H
	DB	00H
	DB	00H
	DB	00H
	DB	00H
	DB	00H
	DB	00H
	DB	00H
	DB	00H
	DB	00H
	DB	00H
	DB	00H
	DB	00H
	DB	00H
	DB	00H
	DB	00H
	DB	00H
	DB	00H
	DB	00H
	DB	00H
	DB	00H
	DB	00H
	DB	00H
	DB	00H
	DB	00H
	DB	00H
	DB	00H
	DB	00H
	DB	00H
	DB	00H
	DB	00H
	DB	00H
	DB	00H
	DB	00H
	DB	00H
	DB	00H
	DB	00H
	DB	00H
	DB	00H
	DB	00H
	DB	00H
	DB	00H
	DB	00H
	DB	00H
	DB	00H
	DB	00H
	DB	00H
	DB	00H
	DB	00H
	DB	00H
	DB	00H
	DB	00H
	DB	00H
	DB	00H
	DB	00H
	DB	00H
	DB	00H
	DB	00H
	DB	00H
	DB	00H
	DB	00H
	DB	00H
	DB	00H
	DB	00H
	DB	00H
	DB	00H
	DB	00H
	DB	00H
	DB	00H
	DB	00H
	DB	00H
	DB	00H
	DB	00H
	DB	00H
	DB	00H
	DB	00H
	DB	00H
	DB	00H
	DB	00H
	DB	00H
	DB	00H
	DB	00H
	DB	00H
	DB	00H
	DB	00H
	DB	00H
	DB	00H
	DB	00H
	DB	00H
	DB	00H
	DB	00H
	DB	00H
	DB	00H
	DB	00H
	DB	00H
	DB	00H
	DB	00H
	DB	00H
	DB	00H
	DB	00H
	DB	00H
	DB	00H
	DB	00H
	DB	00H
	DB	00H
	DB	00H
	DB	00H
	DB	00H
	DB	00H
	DB	00H
	DB	00H
	DB	00H
	DB	00H
	DB	00H
	DB	00H
	DB	00H
	DB	00H
	DB	00H
	DB	00H
	DB	00H
	DB	00H
	DB	00H
	DB	00H
	DB	00H
	DB	00H
	DB	00H
	DB	00H
	DB	00H
	DB	00H
	DB	00H
	DB	00H
	DB	00H
	DB	00H
	DB	00H
	DB	038H
	DB	01cH
	DB	010H
	DB	0ffH
	DB	038H
	DB	01cH
	DB	08H
	DB	0ffH
	DB	038H
	DB	01cH
	DB	08H
	DB	0ffH
	DB	038H
	DB	01cH
	DB	010H
	DB	0ffH
	DB	038H
	DB	01cH
	DB	08H
	DB	0ffH
	DB	038H
	DB	018H
	DB	08H
	DB	0ffH
	DB	038H
	DB	01cH
	DB	010H
	DB	0ffH
	DB	038H
	DB	01cH
	DB	08H
	DB	0ffH
	DB	038H
	DB	01cH
	DB	08H
	DB	0ffH
	DB	030H
	DB	018H
	DB	010H
	DB	0ffH
	DB	038H
	DB	01cH
	DB	08H
	DB	0ffH
	DB	038H
	DB	01cH
	DB	08H
	DB	0ffH
	DB	038H
	DB	018H
	DB	010H
	DB	0ffH
	DB	038H
	DB	01cH
	DB	010H
	DB	0ffH
	DB	038H
	DB	01cH
	DB	08H
	DB	0ffH
	DB	038H
	DB	018H
	DB	010H
	DB	0ffH
	DB	030H
	DB	01cH
	DB	010H
	DB	0ffH
	DB	038H
	DB	01cH
	DB	08H
	DB	0ffH
	DB	038H
	DB	01cH
	DB	08H
	DB	0ffH
	DB	038H
	DB	01cH
	DB	010H
	DB	0ffH
	DB	038H
	DB	01cH
	DB	08H
	DB	0ffH
	DB	038H
	DB	01cH
	DB	010H
	DB	0ffH
	DB	038H
	DB	01cH
	DB	010H
	DB	0ffH
	DB	038H
	DB	01cH
	DB	08H
	DB	0ffH
	DB	038H
	DB	01cH
	DB	010H
	DB	0ffH
	DB	038H
	DB	01cH
	DB	010H
	DB	0ffH
	DB	038H
	DB	01cH
	DB	08H
	DB	0ffH
	DB	038H
	DB	01cH
	DB	010H
	DB	0ffH
	DB	038H
	DB	01cH
	DB	08H
	DB	0ffH
	DB	038H
	DB	01cH
	DB	08H
	DB	0ffH
	DB	038H
	DB	018H
	DB	010H
	DB	0ffH
	DB	038H
	DB	01cH
	DB	08H
	DB	0ffH
	DB	038H
	DB	01cH
	DB	010H
	DB	0ffH
	DB	038H
	DB	018H
	DB	08H
	DB	0ffH
	DB	038H
	DB	01cH
	DB	010H
	DB	0ffH
	DB	038H
	DB	01cH
	DB	08H
	DB	0ffH
	DB	038H
	DB	01cH
	DB	08H
	DB	0ffH
	DB	038H
	DB	01cH
	DB	010H
	DB	0ffH
	DB	038H
	DB	01cH
	DB	08H
	DB	0ffH
	DB	030H
	DB	018H
	DB	010H
	DB	0ffH
	DB	038H
	DB	01cH
	DB	08H
	DB	0ffH
	DB	038H
	DB	01cH
	DB	010H
	DB	0ffH
	DB	030H
	DB	018H
	DB	010H
	DB	0ffH
	DB	038H
	DB	01cH
	DB	08H
	DB	0ffH
	DB	038H
	DB	01cH
	DB	08H
	DB	0ffH
	DB	038H
	DB	01cH
	DB	08H
	DB	0ffH
	DB	038H
	DB	018H
	DB	08H
	DB	0ffH
	DB	00H
	DB	00H
	DB	00H
	DB	00H
	DB	00H
	DB	00H
	DB	00H
	DB	00H
	DB	00H
	DB	00H
	DB	00H
	DB	00H
	DB	00H
	DB	00H
	DB	00H
	DB	00H
	DB	078H
	DB	060H
	DB	038H
	DB	0ffH
	DB	070H
	DB	05cH
	DB	030H
	DB	0ffH
	DB	070H
	DB	060H
	DB	030H
	DB	0ffH
	DB	078H
	DB	060H
	DB	038H
	DB	0ffH
	DB	078H
	DB	060H
	DB	030H
	DB	0ffH
	DB	078H
	DB	05cH
	DB	038H
	DB	0ffH
	DB	070H
	DB	060H
	DB	038H
	DB	0ffH
	DB	070H
	DB	060H
	DB	030H
	DB	0ffH
	DB	00H
	DB	00H
	DB	00H
	DB	00H
	DB	00H
	DB	00H
	DB	00H
	DB	00H
	DB	00H
	DB	00H
	DB	00H
	DB	00H
	DB	00H
	DB	00H
	DB	00H
	DB	00H
	DB	00H
	DB	00H
	DB	00H
	DB	00H
	DB	00H
	DB	00H
	DB	00H
	DB	00H
	DB	00H
	DB	00H
	DB	00H
	DB	00H
	DB	00H
	DB	00H
	DB	00H
	DB	00H
	DB	00H
	DB	00H
	DB	00H
	DB	00H
	DB	00H
	DB	00H
	DB	00H
	DB	00H
	DB	00H
	DB	00H
	DB	00H
	DB	00H
	DB	00H
	DB	00H
	DB	00H
	DB	00H
	DB	00H
	DB	00H
	DB	00H
	DB	00H
	DB	00H
	DB	00H
	DB	00H
	DB	00H
	DB	00H
	DB	00H
	DB	00H
	DB	00H
	DB	00H
	DB	00H
	DB	00H
	DB	00H
	DB	00H
	DB	00H
	DB	00H
	DB	00H
	DB	00H
	DB	00H
	DB	00H
	DB	00H
	DB	00H
	DB	00H
	DB	00H
	DB	00H
	DB	00H
	DB	00H
	DB	00H
	DB	00H
	DB	00H
	DB	00H
	DB	00H
	DB	00H
	DB	00H
	DB	00H
	DB	00H
	DB	00H
	DB	00H
	DB	00H
	DB	00H
	DB	00H
	DB	00H
	DB	00H
	DB	00H
	DB	00H
	DB	00H
	DB	00H
	DB	00H
	DB	00H
	DB	00H
	DB	00H
	DB	00H
	DB	00H
	DB	00H
	DB	00H
	DB	00H
	DB	00H
	DB	00H
	DB	00H
	DB	00H
	DB	00H
	DB	00H
	DB	00H
	DB	00H
	DB	00H
	DB	00H
	DB	00H
	DB	00H
	DB	00H
	DB	00H
	DB	00H
	DB	00H
	DB	00H
	DB	00H
	DB	00H
	DB	00H
	DB	00H
	DB	00H
	DB	00H
	DB	00H
	DB	00H
	DB	00H
	DB	00H
	DB	00H
	DB	00H
	DB	00H
	DB	00H
	DB	00H
	DB	00H
	DB	00H
	DB	00H
	DB	00H
	DB	00H
	DB	00H
	DB	00H
	DB	00H
	DB	00H
	DB	00H
	DB	00H
	DB	00H
	DB	00H
	DB	00H
	DB	00H
	DB	00H
	DB	00H
	DB	00H
	DB	00H
	DB	00H
	DB	00H
	DB	00H
	DB	00H
	DB	00H
	DB	00H
	DB	00H
	DB	00H
	DB	00H
	DB	00H
	DB	00H
	DB	00H
	DB	00H
	DB	00H
	DB	00H
	DB	00H
	DB	00H
	DB	00H
	DB	00H
	DB	00H
	DB	00H
	DB	00H
	DB	00H
	DB	00H
	DB	00H
	DB	00H
	DB	00H
	DB	00H
	DB	00H
	DB	00H
	DB	00H
	DB	00H
	DB	00H
	DB	00H
	DB	00H
	DB	00H
	DB	00H
	DB	00H
	DB	00H
	DB	00H
	DB	00H
	DB	00H
	DB	00H
	DB	00H
	DB	00H
	DB	00H
	DB	038H
	DB	01cH
	DB	08H
	DB	0ffH
	DB	038H
	DB	01cH
	DB	010H
	DB	0ffH
	DB	038H
	DB	01cH
	DB	010H
	DB	0ffH
	DB	030H
	DB	01cH
	DB	08H
	DB	0ffH
	DB	038H
	DB	018H
	DB	010H
	DB	0ffH
	DB	038H
	DB	01cH
	DB	010H
	DB	0ffH
	DB	030H
	DB	01cH
	DB	08H
	DB	0ffH
	DB	038H
	DB	01cH
	DB	010H
	DB	0ffH
	DB	038H
	DB	018H
	DB	010H
	DB	0ffH
	DB	038H
	DB	01cH
	DB	08H
	DB	0ffH
	DB	038H
	DB	01cH
	DB	010H
	DB	0ffH
	DB	038H
	DB	01cH
	DB	08H
	DB	0ffH
	DB	030H
	DB	01cH
	DB	08H
	DB	0ffH
	DB	038H
	DB	01cH
	DB	010H
	DB	0ffH
	DB	038H
	DB	01cH
	DB	08H
	DB	0ffH
	DB	038H
	DB	01cH
	DB	010H
	DB	0ffH
	DB	038H
	DB	01cH
	DB	08H
	DB	0ffH
	DB	038H
	DB	018H
	DB	010H
	DB	0ffH
	DB	038H
	DB	01cH
	DB	08H
	DB	0ffH
	DB	030H
	DB	01cH
	DB	08H
	DB	0ffH
	DB	038H
	DB	018H
	DB	010H
	DB	0ffH
	DB	038H
	DB	018H
	DB	08H
	DB	0ffH
	DB	038H
	DB	01cH
	DB	010H
	DB	0ffH
	DB	038H
	DB	01cH
	DB	08H
	DB	0ffH
	DB	030H
	DB	018H
	DB	010H
	DB	0ffH
	DB	038H
	DB	01cH
	DB	08H
	DB	0ffH
	DB	038H
	DB	01cH
	DB	010H
	DB	0ffH
	DB	030H
	DB	018H
	DB	010H
	DB	0ffH
	DB	038H
	DB	01cH
	DB	08H
	DB	0ffH
	DB	038H
	DB	01cH
	DB	010H
	DB	0ffH
	DB	038H
	DB	01cH
	DB	08H
	DB	0ffH
	DB	030H
	DB	01cH
	DB	010H
	DB	0ffH
	DB	038H
	DB	01cH
	DB	08H
	DB	0ffH
	DB	038H
	DB	01cH
	DB	08H
	DB	0ffH
	DB	038H
	DB	01cH
	DB	010H
	DB	0ffH
	DB	030H
	DB	01cH
	DB	010H
	DB	0ffH
	DB	038H
	DB	018H
	DB	08H
	DB	0ffH
	DB	038H
	DB	01cH
	DB	08H
	DB	0ffH
	DB	038H
	DB	01cH
	DB	010H
	DB	0ffH
	DB	038H
	DB	01cH
	DB	08H
	DB	0ffH
	DB	038H
	DB	01cH
	DB	08H
	DB	0ffH
	DB	038H
	DB	01cH
	DB	010H
	DB	0ffH
	DB	038H
	DB	01cH
	DB	010H
	DB	0ffH
	DB	038H
	DB	018H
	DB	08H
	DB	0ffH
	DB	030H
	DB	01cH
	DB	010H
	DB	0ffH
	DB	038H
	DB	01cH
	DB	010H
	DB	0ffH
	DB	038H
	DB	01cH
	DB	08H
	DB	0ffH
	DB	00H
	DB	00H
	DB	00H
	DB	00H
	DB	00H
	DB	00H
	DB	00H
	DB	00H
	DB	00H
	DB	00H
	DB	00H
	DB	00H
	DB	00H
	DB	00H
	DB	00H
	DB	00H
	DB	078H
	DB	05cH
	DB	038H
	DB	0ffH
	DB	070H
	DB	05cH
	DB	030H
	DB	0ffH
	DB	078H
	DB	060H
	DB	038H
	DB	0ffH
	DB	070H
	DB	05cH
	DB	030H
	DB	0ffH
	DB	070H
	DB	05cH
	DB	030H
	DB	0ffH
	DB	078H
	DB	05cH
	DB	030H
	DB	0ffH
	DB	078H
	DB	060H
	DB	038H
	DB	0ffH
	DB	070H
	DB	05cH
	DB	038H
	DB	0ffH
	DB	00H
	DB	00H
	DB	00H
	DB	00H
	DB	00H
	DB	00H
	DB	00H
	DB	00H
	DB	00H
	DB	00H
	DB	00H
	DB	00H
	DB	00H
	DB	00H
	DB	00H
	DB	00H
	DB	00H
	DB	00H
	DB	00H
	DB	00H
	DB	00H
	DB	00H
	DB	00H
	DB	00H
	DB	00H
	DB	00H
	DB	00H
	DB	00H
	DB	00H
	DB	00H
	DB	00H
	DB	00H
	DB	00H
	DB	00H
	DB	00H
	DB	00H
	DB	00H
	DB	00H
	DB	00H
	DB	00H
	DB	00H
	DB	00H
	DB	00H
	DB	00H
	DB	00H
	DB	00H
	DB	00H
	DB	00H
	DB	00H
	DB	00H
	DB	00H
	DB	00H
	DB	00H
	DB	00H
	DB	00H
	DB	00H
	DB	00H
	DB	00H
	DB	00H
	DB	00H
	DB	00H
	DB	00H
	DB	00H
	DB	00H
	DB	00H
	DB	00H
	DB	00H
	DB	00H
	DB	00H
	DB	00H
	DB	00H
	DB	00H
	DB	00H
	DB	00H
	DB	00H
	DB	00H
	DB	00H
	DB	00H
	DB	00H
	DB	00H
	DB	00H
	DB	00H
	DB	00H
	DB	00H
	DB	00H
	DB	00H
	DB	00H
	DB	00H
	DB	00H
	DB	00H
	DB	00H
	DB	00H
	DB	00H
	DB	00H
	DB	00H
	DB	00H
	DB	00H
	DB	00H
	DB	00H
	DB	00H
	DB	00H
	DB	00H
	DB	00H
	DB	00H
	DB	00H
	DB	00H
	DB	00H
	DB	00H
	DB	00H
	DB	00H
	DB	00H
	DB	00H
	DB	00H
	DB	00H
	DB	00H
	DB	00H
	DB	00H
	DB	00H
	DB	00H
	DB	00H
	DB	00H
	DB	00H
	DB	00H
	DB	00H
	DB	00H
	DB	00H
	DB	00H
	DB	00H
	DB	00H
	DB	00H
	DB	00H
	DB	00H
	DB	00H
	DB	00H
	DB	00H
	DB	00H
	DB	00H
	DB	00H
	DB	00H
	DB	00H
	DB	00H
	DB	00H
	DB	00H
	DB	00H
	DB	00H
	DB	00H
	DB	00H
	DB	00H
	DB	00H
	DB	00H
	DB	00H
	DB	00H
	DB	00H
	DB	00H
	DB	00H
	DB	00H
	DB	00H
	DB	00H
	DB	00H
	DB	00H
	DB	00H
	DB	00H
	DB	00H
	DB	00H
	DB	00H
	DB	00H
	DB	00H
	DB	00H
	DB	00H
	DB	00H
	DB	00H
	DB	00H
	DB	00H
	DB	00H
	DB	00H
	DB	00H
	DB	00H
	DB	00H
	DB	00H
	DB	00H
	DB	00H
	DB	00H
	DB	00H
	DB	00H
	DB	00H
	DB	00H
	DB	00H
	DB	00H
	DB	00H
	DB	00H
	DB	00H
	DB	00H
	DB	00H
	DB	00H
	DB	00H
	DB	00H
	DB	00H
	DB	00H
	DB	00H
	DB	00H
	DB	00H
	DB	00H
	DB	00H
	DB	00H
	DB	038H
	DB	018H
	DB	08H
	DB	0ffH
	DB	038H
	DB	01cH
	DB	010H
	DB	0ffH
	DB	038H
	DB	018H
	DB	08H
	DB	0ffH
	DB	038H
	DB	01cH
	DB	08H
	DB	0ffH
	DB	038H
	DB	01cH
	DB	010H
	DB	0ffH
	DB	038H
	DB	01cH
	DB	08H
	DB	0ffH
	DB	038H
	DB	01cH
	DB	08H
	DB	0ffH
	DB	038H
	DB	018H
	DB	010H
	DB	0ffH
	DB	038H
	DB	01cH
	DB	08H
	DB	0ffH
	DB	038H
	DB	01cH
	DB	010H
	DB	0ffH
	DB	038H
	DB	018H
	DB	010H
	DB	0ffH
	DB	038H
	DB	01cH
	DB	08H
	DB	0ffH
	DB	038H
	DB	018H
	DB	010H
	DB	0ffH
	DB	038H
	DB	01cH
	DB	08H
	DB	0ffH
	DB	038H
	DB	018H
	DB	010H
	DB	0ffH
	DB	038H
	DB	01cH
	DB	08H
	DB	0ffH
	DB	038H
	DB	01cH
	DB	08H
	DB	0ffH
	DB	038H
	DB	018H
	DB	010H
	DB	0ffH
	DB	038H
	DB	01cH
	DB	010H
	DB	0ffH
	DB	038H
	DB	01cH
	DB	08H
	DB	0ffH
	DB	038H
	DB	01cH
	DB	010H
	DB	0ffH
	DB	038H
	DB	01cH
	DB	08H
	DB	0ffH
	DB	030H
	DB	01cH
	DB	08H
	DB	0ffH
	DB	038H
	DB	018H
	DB	010H
	DB	0ffH
	DB	038H
	DB	01cH
	DB	08H
	DB	0ffH
	DB	038H
	DB	01cH
	DB	08H
	DB	0ffH
	DB	038H
	DB	018H
	DB	010H
	DB	0ffH
	DB	038H
	DB	01cH
	DB	08H
	DB	0ffH
	DB	038H
	DB	01cH
	DB	010H
	DB	0ffH
	DB	038H
	DB	018H
	DB	010H
	DB	0ffH
	DB	038H
	DB	01cH
	DB	08H
	DB	0ffH
	DB	038H
	DB	018H
	DB	010H
	DB	0ffH
	DB	038H
	DB	01cH
	DB	010H
	DB	0ffH
	DB	038H
	DB	018H
	DB	08H
	DB	0ffH
	DB	038H
	DB	01cH
	DB	010H
	DB	0ffH
	DB	038H
	DB	01cH
	DB	010H
	DB	0ffH
	DB	038H
	DB	018H
	DB	08H
	DB	0ffH
	DB	038H
	DB	01cH
	DB	010H
	DB	0ffH
	DB	038H
	DB	01cH
	DB	010H
	DB	0ffH
	DB	038H
	DB	018H
	DB	08H
	DB	0ffH
	DB	038H
	DB	01cH
	DB	010H
	DB	0ffH
	DB	030H
	DB	01cH
	DB	08H
	DB	0ffH
	DB	038H
	DB	01cH
	DB	08H
	DB	0ffH
	DB	038H
	DB	018H
	DB	010H
	DB	0ffH
	DB	038H
	DB	01cH
	DB	010H
	DB	0ffH
	DB	038H
	DB	01cH
	DB	08H
	DB	0ffH
	DB	038H
	DB	018H
	DB	010H
	DB	0ffH
	DB	00H
	DB	00H
	DB	00H
	DB	00H
	DB	00H
	DB	00H
	DB	00H
	DB	00H
	DB	00H
	DB	00H
	DB	00H
	DB	00H
	DB	00H
	DB	00H
	DB	00H
	DB	00H
	DB	070H
	DB	060H
	DB	030H
	DB	0ffH
	DB	078H
	DB	05cH
	DB	038H
	DB	0ffH
	DB	070H
	DB	060H
	DB	038H
	DB	0ffH
	DB	078H
	DB	05cH
	DB	030H
	DB	0ffH
	DB	070H
	DB	05cH
	DB	038H
	DB	0ffH
	DB	070H
	DB	060H
	DB	030H
	DB	0ffH
	DB	078H
	DB	060H
	DB	030H
	DB	0ffH
	DB	078H
	DB	05cH
	DB	038H
	DB	0ffH
	DB	00H
	DB	00H
	DB	00H
	DB	00H
	DB	00H
	DB	00H
	DB	00H
	DB	00H
	DB	00H
	DB	00H
	DB	00H
	DB	00H
	DB	00H
	DB	00H
	DB	00H
	DB	00H
	DB	00H
	DB	00H
	DB	00H
	DB	00H
	DB	00H
	DB	00H
	DB	00H
	DB	00H
	DB	00H
	DB	00H
	DB	00H
	DB	00H
	DB	00H
	DB	00H
	DB	00H
	DB	00H
	DB	00H
	DB	00H
	DB	00H
	DB	00H
	DB	00H
	DB	00H
	DB	00H
	DB	00H
	DB	00H
	DB	00H
	DB	00H
	DB	00H
	DB	00H
	DB	00H
	DB	00H
	DB	00H
	DB	00H
	DB	00H
	DB	00H
	DB	00H
	DB	00H
	DB	00H
	DB	00H
	DB	00H
	DB	00H
	DB	00H
	DB	00H
	DB	00H
	DB	00H
	DB	00H
	DB	00H
	DB	00H
	DB	00H
	DB	00H
	DB	00H
	DB	00H
	DB	00H
	DB	00H
	DB	00H
	DB	00H
	DB	00H
	DB	00H
	DB	00H
	DB	00H
	DB	00H
	DB	00H
	DB	00H
	DB	00H
	DB	00H
	DB	00H
	DB	00H
	DB	00H
	DB	00H
	DB	00H
	DB	00H
	DB	00H
	DB	00H
	DB	00H
	DB	00H
	DB	00H
	DB	00H
	DB	00H
	DB	00H
	DB	00H
	DB	00H
	DB	00H
	DB	00H
	DB	00H
	DB	00H
	DB	00H
	DB	00H
	DB	00H
	DB	00H
	DB	00H
	DB	00H
	DB	00H
	DB	00H
	DB	00H
	DB	00H
	DB	00H
	DB	00H
	DB	00H
	DB	00H
	DB	00H
	DB	00H
	DB	00H
	DB	00H
	DB	00H
	DB	00H
	DB	00H
	DB	00H
	DB	00H
	DB	00H
	DB	00H
	DB	00H
	DB	00H
	DB	00H
	DB	00H
	DB	00H
	DB	00H
	DB	00H
	DB	00H
	DB	00H
	DB	00H
	DB	00H
	DB	00H
	DB	00H
	DB	00H
	DB	00H
	DB	00H
	DB	00H
	DB	00H
	DB	00H
	DB	00H
	DB	00H
	DB	00H
	DB	00H
	DB	00H
	DB	00H
	DB	00H
	DB	00H
	DB	00H
	DB	00H
	DB	00H
	DB	00H
	DB	00H
	DB	00H
	DB	00H
	DB	00H
	DB	00H
	DB	00H
	DB	00H
	DB	00H
	DB	00H
	DB	00H
	DB	00H
	DB	00H
	DB	00H
	DB	00H
	DB	00H
	DB	00H
	DB	00H
	DB	00H
	DB	00H
	DB	00H
	DB	00H
	DB	00H
	DB	00H
	DB	00H
	DB	00H
	DB	00H
	DB	00H
	DB	00H
	DB	00H
	DB	00H
	DB	00H
	DB	00H
	DB	00H
	DB	00H
	DB	00H
	DB	00H
	DB	00H
	DB	00H
	DB	00H
	DB	00H
	DB	00H
	DB	00H
	DB	00H
	DB	00H
	DB	00H
	DB	00H
	DB	00H
	DB	038H
	DB	01cH
	DB	010H
	DB	0ffH
	DB	038H
	DB	01cH
	DB	08H
	DB	0ffH
	DB	030H
	DB	01cH
	DB	010H
	DB	0ffH
	DB	038H
	DB	018H
	DB	010H
	DB	0ffH
	DB	038H
	DB	01cH
	DB	08H
	DB	0ffH
	DB	038H
	DB	01cH
	DB	010H
	DB	0ffH
	DB	038H
	DB	018H
	DB	010H
	DB	0ffH
	DB	038H
	DB	01cH
	DB	08H
	DB	0ffH
	DB	030H
	DB	01cH
	DB	08H
	DB	0ffH
	DB	038H
	DB	01cH
	DB	010H
	DB	0ffH
	DB	038H
	DB	01cH
	DB	08H
	DB	0ffH
	DB	038H
	DB	018H
	DB	010H
	DB	0ffH
	DB	038H
	DB	01cH
	DB	010H
	DB	0ffH
	DB	030H
	DB	01cH
	DB	08H
	DB	0ffH
	DB	038H
	DB	01cH
	DB	010H
	DB	0ffH
	DB	038H
	DB	018H
	DB	010H
	DB	0ffH
	DB	030H
	DB	01cH
	DB	08H
	DB	0ffH
	DB	038H
	DB	01cH
	DB	010H
	DB	0ffH
	DB	038H
	DB	01cH
	DB	08H
	DB	0ffH
	DB	038H
	DB	018H
	DB	010H
	DB	0ffH
	DB	038H
	DB	01cH
	DB	010H
	DB	0ffH
	DB	038H
	DB	01cH
	DB	08H
	DB	0ffH
	DB	038H
	DB	018H
	DB	010H
	DB	0ffH
	DB	038H
	DB	01cH
	DB	010H
	DB	0ffH
	DB	038H
	DB	01cH
	DB	08H
	DB	0ffH
	DB	038H
	DB	01cH
	DB	010H
	DB	0ffH
	DB	038H
	DB	01cH
	DB	08H
	DB	0ffH
	DB	038H
	DB	01cH
	DB	08H
	DB	0ffH
	DB	038H
	DB	018H
	DB	010H
	DB	0ffH
	DB	030H
	DB	01cH
	DB	08H
	DB	0ffH
	DB	038H
	DB	01cH
	DB	08H
	DB	0ffH
	DB	038H
	DB	01cH
	DB	010H
	DB	0ffH
	DB	038H
	DB	018H
	DB	08H
	DB	0ffH
	DB	030H
	DB	01cH
	DB	08H
	DB	0ffH
	DB	038H
	DB	01cH
	DB	010H
	DB	0ffH
	DB	038H
	DB	01cH
	DB	08H
	DB	0ffH
	DB	038H
	DB	01cH
	DB	08H
	DB	0ffH
	DB	030H
	DB	01cH
	DB	010H
	DB	0ffH
	DB	038H
	DB	018H
	DB	08H
	DB	0ffH
	DB	038H
	DB	01cH
	DB	010H
	DB	0ffH
	DB	038H
	DB	018H
	DB	010H
	DB	0ffH
	DB	038H
	DB	01cH
	DB	08H
	DB	0ffH
	DB	038H
	DB	01cH
	DB	08H
	DB	0ffH
	DB	038H
	DB	01cH
	DB	010H
	DB	0ffH
	DB	038H
	DB	01cH
	DB	08H
	DB	0ffH
	DB	038H
	DB	01cH
	DB	08H
	DB	0ffH
	DB	030H
	DB	01cH
	DB	010H
	DB	0ffH
	DB	00H
	DB	00H
	DB	00H
	DB	00H
	DB	00H
	DB	00H
	DB	00H
	DB	00H
	DB	00H
	DB	00H
	DB	00H
	DB	00H
	DB	00H
	DB	00H
	DB	00H
	DB	00H
	DB	070H
	DB	05cH
	DB	030H
	DB	0ffH
	DB	078H
	DB	060H
	DB	038H
	DB	0ffH
	DB	070H
	DB	060H
	DB	030H
	DB	0ffH
	DB	070H
	DB	05cH
	DB	038H
	DB	0ffH
	DB	078H
	DB	060H
	DB	038H
	DB	0ffH
	DB	070H
	DB	05cH
	DB	030H
	DB	0ffH
	DB	070H
	DB	05cH
	DB	038H
	DB	0ffH
	DB	078H
	DB	060H
	DB	030H
	DB	0ffH
	DB	00H
	DB	00H
	DB	00H
	DB	00H
	DB	00H
	DB	00H
	DB	00H
	DB	00H
	DB	00H
	DB	00H
	DB	00H
	DB	00H
	DB	00H
	DB	00H
	DB	00H
	DB	00H
	DB	00H
	DB	00H
	DB	00H
	DB	00H
	DB	00H
	DB	00H
	DB	00H
	DB	00H
	DB	00H
	DB	00H
	DB	00H
	DB	00H
	DB	00H
	DB	00H
	DB	00H
	DB	00H
	DB	00H
	DB	00H
	DB	00H
	DB	00H
	DB	00H
	DB	00H
	DB	00H
	DB	00H
	DB	00H
	DB	00H
	DB	00H
	DB	00H
	DB	00H
	DB	00H
	DB	00H
	DB	00H
	DB	00H
	DB	00H
	DB	00H
	DB	00H
	DB	00H
	DB	00H
	DB	00H
	DB	00H
	DB	00H
	DB	00H
	DB	00H
	DB	00H
	DB	00H
	DB	00H
	DB	00H
	DB	00H
	DB	00H
	DB	00H
	DB	00H
	DB	00H
	DB	00H
	DB	00H
	DB	00H
	DB	00H
	DB	00H
	DB	00H
	DB	00H
	DB	00H
	DB	00H
	DB	00H
	DB	00H
	DB	00H
	DB	00H
	DB	00H
	DB	00H
	DB	00H
	DB	00H
	DB	00H
	DB	00H
	DB	00H
	DB	00H
	DB	00H
	DB	00H
	DB	00H
	DB	00H
	DB	00H
	DB	00H
	DB	00H
	DB	00H
	DB	00H
	DB	00H
	DB	00H
	DB	00H
	DB	00H
	DB	00H
	DB	00H
	DB	00H
	DB	00H
	DB	00H
	DB	00H
	DB	00H
	DB	00H
	DB	00H
	DB	00H
	DB	00H
	DB	00H
	DB	00H
	DB	00H
	DB	00H
	DB	00H
	DB	00H
	DB	00H
	DB	00H
	DB	00H
	DB	00H
	DB	00H
	DB	00H
	DB	00H
	DB	00H
	DB	00H
	DB	00H
	DB	00H
	DB	00H
	DB	00H
	DB	00H
	DB	00H
	DB	00H
	DB	00H
	DB	00H
	DB	00H
	DB	00H
	DB	00H
	DB	00H
	DB	00H
	DB	00H
	DB	00H
	DB	00H
	DB	00H
	DB	00H
	DB	00H
	DB	00H
	DB	00H
	DB	00H
	DB	00H
	DB	00H
	DB	00H
	DB	00H
	DB	00H
	DB	00H
	DB	00H
	DB	00H
	DB	00H
	DB	00H
	DB	00H
	DB	00H
	DB	00H
	DB	00H
	DB	00H
	DB	00H
	DB	00H
	DB	00H
	DB	00H
	DB	00H
	DB	00H
	DB	00H
	DB	00H
	DB	00H
	DB	00H
	DB	00H
	DB	00H
	DB	00H
	DB	00H
	DB	00H
	DB	00H
	DB	00H
	DB	00H
	DB	00H
	DB	00H
	DB	00H
	DB	00H
	DB	00H
	DB	00H
	DB	00H
	DB	00H
	DB	00H
	DB	00H
	DB	00H
	DB	00H
	DB	00H
	DB	00H
	DB	00H
	DB	00H
	DB	00H
	DB	00H
	DB	00H
	DB	00H
	DB	038H
	DB	01cH
	DB	08H
	DB	0ffH
	DB	038H
	DB	01cH
	DB	010H
	DB	0ffH
	DB	038H
	DB	01cH
	DB	08H
	DB	0ffH
	DB	038H
	DB	018H
	DB	010H
	DB	0ffH
	DB	038H
	DB	01cH
	DB	08H
	DB	0ffH
	DB	030H
	DB	01cH
	DB	010H
	DB	0ffH
	DB	038H
	DB	01cH
	DB	010H
	DB	0ffH
	DB	038H
	DB	01cH
	DB	08H
	DB	0ffH
	DB	038H
	DB	018H
	DB	010H
	DB	0ffH
	DB	038H
	DB	01cH
	DB	08H
	DB	0ffH
	DB	030H
	DB	01cH
	DB	08H
	DB	0ffH
	DB	038H
	DB	01cH
	DB	010H
	DB	0ffH
	DB	038H
	DB	01cH
	DB	08H
	DB	0ffH
	DB	038H
	DB	01cH
	DB	08H
	DB	0ffH
	DB	038H
	DB	01cH
	DB	010H
	DB	0ffH
	DB	038H
	DB	01cH
	DB	08H
	DB	0ffH
	DB	038H
	DB	018H
	DB	010H
	DB	0ffH
	DB	038H
	DB	01cH
	DB	08H
	DB	0ffH
	DB	030H
	DB	01cH
	DB	08H
	DB	0ffH
	DB	038H
	DB	018H
	DB	010H
	DB	0ffH
	DB	038H
	DB	01cH
	DB	08H
	DB	0ffH
	DB	030H
	DB	01cH
	DB	010H
	DB	0ffH
	DB	038H
	DB	01cH
	DB	08H
	DB	0ffH
	DB	038H
	DB	01cH
	DB	010H
	DB	0ffH
	DB	038H
	DB	018H
	DB	010H
	DB	0ffH
	DB	030H
	DB	01cH
	DB	08H
	DB	0ffH
	DB	038H
	DB	01cH
	DB	010H
	DB	0ffH
	DB	038H
	DB	018H
	DB	010H
	DB	0ffH
	DB	038H
	DB	01cH
	DB	08H
	DB	0ffH
	DB	038H
	DB	01cH
	DB	010H
	DB	0ffH
	DB	038H
	DB	01cH
	DB	08H
	DB	0ffH
	DB	038H
	DB	01cH
	DB	010H
	DB	0ffH
	DB	038H
	DB	01cH
	DB	08H
	DB	0ffH
	DB	038H
	DB	01cH
	DB	010H
	DB	0ffH
	DB	038H
	DB	018H
	DB	010H
	DB	0ffH
	DB	038H
	DB	01cH
	DB	08H
	DB	0ffH
	DB	038H
	DB	01cH
	DB	010H
	DB	0ffH
	DB	038H
	DB	018H
	DB	08H
	DB	0ffH
	DB	038H
	DB	01cH
	DB	08H
	DB	0ffH
	DB	038H
	DB	01cH
	DB	010H
	DB	0ffH
	DB	030H
	DB	01cH
	DB	08H
	DB	0ffH
	DB	038H
	DB	018H
	DB	010H
	DB	0ffH
	DB	038H
	DB	01cH
	DB	010H
	DB	0ffH
	DB	038H
	DB	018H
	DB	08H
	DB	0ffH
	DB	038H
	DB	01cH
	DB	010H
	DB	0ffH
	DB	038H
	DB	018H
	DB	010H
	DB	0ffH
	DB	038H
	DB	01cH
	DB	08H
	DB	0ffH
	DB	00H
	DB	00H
	DB	00H
	DB	00H
	DB	00H
	DB	00H
	DB	00H
	DB	00H
	DB	00H
	DB	00H
	DB	00H
	DB	00H
	DB	00H
	DB	00H
	DB	00H
	DB	00H
	DB	070H
	DB	05cH
	DB	038H
	DB	0ffH
	DB	078H
	DB	060H
	DB	030H
	DB	0ffH
	DB	078H
	DB	05cH
	DB	030H
	DB	0ffH
	DB	070H
	DB	05cH
	DB	038H
	DB	0ffH
	DB	078H
	DB	05cH
	DB	030H
	DB	0ffH
	DB	070H
	DB	060H
	DB	038H
	DB	0ffH
	DB	078H
	DB	05cH
	DB	030H
	DB	0ffH
	DB	070H
	DB	060H
	DB	038H
	DB	0ffH
	DB	00H
	DB	00H
	DB	00H
	DB	00H
	DB	00H
	DB	00H
	DB	00H
	DB	00H
	DB	00H
	DB	00H
	DB	00H
	DB	00H
	DB	00H
	DB	00H
	DB	00H
	DB	00H
	DB	00H
	DB	00H
	DB	00H
	DB	00H
	DB	00H
	DB	00H
	DB	00H
	DB	00H
	DB	00H
	DB	00H
	DB	00H
	DB	00H
	DB	00H
	DB	00H
	DB	00H
	DB	00H
	DB	00H
	DB	00H
	DB	00H
	DB	00H
	DB	00H
	DB	00H
	DB	00H
	DB	00H
	DB	00H
	DB	00H
	DB	00H
	DB	00H
	DB	00H
	DB	00H
	DB	00H
	DB	00H
	DB	00H
	DB	00H
	DB	00H
	DB	00H
	DB	00H
	DB	00H
	DB	00H
	DB	00H
	DB	00H
	DB	00H
	DB	00H
	DB	00H
	DB	00H
	DB	00H
	DB	00H
	DB	00H
	DB	00H
	DB	00H
	DB	00H
	DB	00H
	DB	00H
	DB	00H
	DB	00H
	DB	00H
	DB	00H
	DB	00H
	DB	00H
	DB	00H
	DB	00H
	DB	00H
	DB	00H
	DB	00H
	DB	00H
	DB	00H
	DB	00H
	DB	00H
	DB	00H
	DB	00H
	DB	00H
	DB	00H
	DB	00H
	DB	00H
	DB	00H
	DB	00H
	DB	00H
	DB	00H
	DB	00H
	DB	00H
	DB	00H
	DB	00H
	DB	00H
	DB	00H
	DB	00H
	DB	00H
	DB	00H
	DB	00H
	DB	00H
	DB	00H
	DB	00H
	DB	00H
	DB	00H
	DB	00H
	DB	00H
	DB	00H
	DB	00H
	DB	00H
	DB	00H
	DB	00H
	DB	00H
	DB	00H
	DB	00H
	DB	00H
	DB	00H
	DB	00H
	DB	00H
	DB	00H
	DB	00H
	DB	00H
	DB	00H
	DB	00H
	DB	00H
	DB	00H
	DB	00H
	DB	00H
	DB	00H
	DB	00H
	DB	00H
	DB	00H
	DB	00H
	DB	00H
	DB	00H
	DB	00H
	DB	00H
	DB	00H
	DB	00H
	DB	00H
	DB	00H
	DB	00H
	DB	00H
	DB	00H
	DB	00H
	DB	00H
	DB	00H
	DB	00H
	DB	00H
	DB	00H
	DB	00H
	DB	00H
	DB	00H
	DB	00H
	DB	00H
	DB	00H
	DB	00H
	DB	00H
	DB	00H
	DB	00H
	DB	00H
	DB	00H
	DB	00H
	DB	00H
	DB	00H
	DB	00H
	DB	00H
	DB	00H
	DB	00H
	DB	00H
	DB	00H
	DB	00H
	DB	00H
	DB	00H
	DB	00H
	DB	00H
	DB	00H
	DB	00H
	DB	00H
	DB	00H
	DB	00H
	DB	00H
	DB	00H
	DB	00H
	DB	00H
	DB	00H
	DB	00H
	DB	00H
	DB	00H
	DB	00H
	DB	00H
	DB	00H
	DB	00H
	DB	00H
	DB	00H
	DB	00H
	DB	00H
	DB	00H
	DB	00H
	DB	00H
	DB	038H
	DB	018H
	DB	010H
	DB	0ffH
	DB	038H
	DB	01cH
	DB	08H
	DB	0ffH
	DB	038H
	DB	01cH
	DB	010H
	DB	0ffH
	DB	038H
	DB	01cH
	DB	08H
	DB	0ffH
	DB	038H
	DB	018H
	DB	08H
	DB	0ffH
	DB	038H
	DB	01cH
	DB	08H
	DB	0ffH
	DB	038H
	DB	01cH
	DB	08H
	DB	0ffH
	DB	038H
	DB	018H
	DB	010H
	DB	0ffH
	DB	038H
	DB	01cH
	DB	010H
	DB	0ffH
	DB	038H
	DB	01cH
	DB	08H
	DB	0ffH
	DB	038H
	DB	018H
	DB	010H
	DB	0ffH
	DB	038H
	DB	01cH
	DB	010H
	DB	0ffH
	DB	038H
	DB	018H
	DB	08H
	DB	0ffH
	DB	038H
	DB	018H
	DB	010H
	DB	0ffH
	DB	038H
	DB	01cH
	DB	08H
	DB	0ffH
	DB	038H
	DB	01cH
	DB	08H
	DB	0ffH
	DB	038H
	DB	01cH
	DB	010H
	DB	0ffH
	DB	038H
	DB	01cH
	DB	010H
	DB	0ffH
	DB	038H
	DB	01cH
	DB	08H
	DB	0ffH
	DB	038H
	DB	01cH
	DB	010H
	DB	0ffH
	DB	038H
	DB	018H
	DB	08H
	DB	0ffH
	DB	038H
	DB	01cH
	DB	08H
	DB	0ffH
	DB	038H
	DB	01cH
	DB	010H
	DB	0ffH
	DB	038H
	DB	018H
	DB	08H
	DB	0ffH
	DB	038H
	DB	01cH
	DB	08H
	DB	0ffH
	DB	038H
	DB	01cH
	DB	010H
	DB	0ffH
	DB	038H
	DB	018H
	DB	08H
	DB	0ffH
	DB	038H
	DB	01cH
	DB	08H
	DB	0ffH
	DB	030H
	DB	01cH
	DB	010H
	DB	0ffH
	DB	038H
	DB	018H
	DB	08H
	DB	0ffH
	DB	038H
	DB	01cH
	DB	010H
	DB	0ffH
	DB	038H
	DB	018H
	DB	08H
	DB	0ffH
	DB	030H
	DB	01cH
	DB	010H
	DB	0ffH
	DB	038H
	DB	01cH
	DB	08H
	DB	0ffH
	DB	038H
	DB	018H
	DB	08H
	DB	0ffH
	DB	030H
	DB	01cH
	DB	010H
	DB	0ffH
	DB	038H
	DB	01cH
	DB	010H
	DB	0ffH
	DB	038H
	DB	01cH
	DB	08H
	DB	0ffH
	DB	038H
	DB	01cH
	DB	010H
	DB	0ffH
	DB	038H
	DB	01cH
	DB	08H
	DB	0ffH
	DB	038H
	DB	01cH
	DB	08H
	DB	0ffH
	DB	038H
	DB	01cH
	DB	010H
	DB	0ffH
	DB	038H
	DB	01cH
	DB	08H
	DB	0ffH
	DB	030H
	DB	01cH
	DB	08H
	DB	0ffH
	DB	038H
	DB	018H
	DB	010H
	DB	0ffH
	DB	038H
	DB	01cH
	DB	08H
	DB	0ffH
	DB	038H
	DB	01cH
	DB	010H
	DB	0ffH
	DB	00H
	DB	00H
	DB	00H
	DB	00H
	DB	00H
	DB	00H
	DB	00H
	DB	00H
	DB	00H
	DB	00H
	DB	00H
	DB	00H
	DB	00H
	DB	00H
	DB	00H
	DB	00H
	DB	070H
	DB	060H
	DB	038H
	DB	0ffH
	DB	078H
	DB	05cH
	DB	030H
	DB	0ffH
	DB	078H
	DB	060H
	DB	038H
	DB	0ffH
	DB	070H
	DB	060H
	DB	030H
	DB	0ffH
	DB	070H
	DB	05cH
	DB	030H
	DB	0ffH
	DB	078H
	DB	060H
	DB	038H
	DB	0ffH
	DB	070H
	DB	060H
	DB	030H
	DB	0ffH
	DB	078H
	DB	05cH
	DB	030H
	DB	0ffH
	DB	00H
	DB	00H
	DB	00H
	DB	00H
	DB	00H
	DB	00H
	DB	00H
	DB	00H
	DB	00H
	DB	00H
	DB	00H
	DB	00H
	DB	00H
	DB	00H
	DB	00H
	DB	00H
	DB	00H
	DB	00H
	DB	00H
	DB	00H
	DB	00H
	DB	00H
	DB	00H
	DB	00H
	DB	00H
	DB	00H
	DB	00H
	DB	00H
	DB	00H
	DB	00H
	DB	00H
	DB	00H
	DB	00H
	DB	00H
	DB	00H
	DB	00H
	DB	00H
	DB	00H
	DB	00H
	DB	00H
	DB	00H
	DB	00H
	DB	00H
	DB	00H
	DB	00H
	DB	00H
	DB	00H
	DB	00H
	DB	00H
	DB	00H
	DB	00H
	DB	00H
	DB	00H
	DB	00H
	DB	00H
	DB	00H
	DB	00H
	DB	00H
	DB	00H
	DB	00H
	DB	00H
	DB	00H
	DB	00H
	DB	00H
	DB	00H
	DB	00H
	DB	00H
	DB	00H
	DB	00H
	DB	00H
	DB	00H
	DB	00H
	DB	00H
	DB	00H
	DB	00H
	DB	00H
	DB	00H
	DB	00H
	DB	00H
	DB	00H
	DB	00H
	DB	00H
	DB	00H
	DB	00H
	DB	00H
	DB	00H
	DB	00H
	DB	00H
	DB	00H
	DB	00H
	DB	00H
	DB	00H
	DB	00H
	DB	00H
	DB	00H
	DB	00H
	DB	00H
	DB	00H
	DB	00H
	DB	00H
	DB	00H
	DB	00H
	DB	00H
	DB	00H
	DB	00H
	DB	00H
	DB	00H
	DB	00H
	DB	00H
	DB	00H
	DB	00H
	DB	00H
	DB	00H
	DB	00H
	DB	00H
	DB	00H
	DB	00H
	DB	00H
	DB	00H
	DB	00H
	DB	00H
	DB	00H
	DB	00H
	DB	00H
	DB	00H
	DB	00H
	DB	00H
	DB	00H
	DB	00H
	DB	00H
	DB	00H
	DB	00H
	DB	00H
	DB	00H
	DB	00H
	DB	00H
	DB	00H
	DB	00H
	DB	00H
	DB	00H
	DB	00H
	DB	00H
	DB	00H
	DB	00H
	DB	00H
	DB	00H
	DB	00H
	DB	00H
	DB	00H
	DB	00H
	DB	00H
	DB	00H
	DB	00H
	DB	00H
	DB	00H
	DB	00H
	DB	00H
	DB	00H
	DB	00H
	DB	00H
	DB	00H
	DB	00H
	DB	00H
	DB	00H
	DB	00H
	DB	00H
	DB	00H
	DB	00H
	DB	00H
	DB	00H
	DB	00H
	DB	00H
	DB	00H
	DB	00H
	DB	00H
	DB	00H
	DB	00H
	DB	00H
	DB	00H
	DB	00H
	DB	00H
	DB	00H
	DB	00H
	DB	00H
	DB	00H
	DB	00H
	DB	00H
	DB	00H
	DB	00H
	DB	00H
	DB	00H
	DB	00H
	DB	00H
	DB	00H
	DB	00H
	DB	00H
	DB	00H
	DB	00H
	DB	00H
	DB	00H
	DB	00H
	DB	00H
	DB	00H
	DB	00H
	DB	038H
	DB	01cH
	DB	08H
	DB	0ffH
	DB	030H
	DB	01cH
	DB	010H
	DB	0ffH
	DB	038H
	DB	018H
	DB	010H
	DB	0ffH
	DB	038H
	DB	01cH
	DB	08H
	DB	0ffH
	DB	030H
	DB	01cH
	DB	010H
	DB	0ffH
	DB	038H
	DB	018H
	DB	010H
	DB	0ffH
	DB	038H
	DB	01cH
	DB	08H
	DB	0ffH
	DB	038H
	DB	01cH
	DB	010H
	DB	0ffH
	DB	030H
	DB	01cH
	DB	08H
	DB	0ffH
	DB	038H
	DB	01cH
	DB	08H
	DB	0ffH
	DB	038H
	DB	01cH
	DB	010H
	DB	0ffH
	DB	038H
	DB	01cH
	DB	08H
	DB	0ffH
	DB	030H
	DB	01cH
	DB	010H
	DB	0ffH
	DB	038H
	DB	01cH
	DB	010H
	DB	0ffH
	DB	038H
	DB	01cH
	DB	08H
	DB	0ffH
	DB	030H
	DB	018H
	DB	010H
	DB	0ffH
	DB	038H
	DB	01cH
	DB	08H
	DB	0ffH
	DB	038H
	DB	018H
	DB	010H
	DB	0ffH
	DB	038H
	DB	01cH
	DB	08H
	DB	0ffH
	DB	038H
	DB	01cH
	DB	010H
	DB	0ffH
	DB	038H
	DB	01cH
	DB	010H
	DB	0ffH
	DB	038H
	DB	018H
	DB	08H
	DB	0ffH
	DB	038H
	DB	01cH
	DB	010H
	DB	0ffH
	DB	030H
	DB	01cH
	DB	08H
	DB	0ffH
	DB	038H
	DB	01cH
	DB	010H
	DB	0ffH
	DB	038H
	DB	01cH
	DB	010H
	DB	0ffH
	DB	038H
	DB	01cH
	DB	08H
	DB	0ffH
	DB	038H
	DB	01cH
	DB	010H
	DB	0ffH
	DB	038H
	DB	01cH
	DB	010H
	DB	0ffH
	DB	038H
	DB	01cH
	DB	08H
	DB	0ffH
	DB	038H
	DB	01cH
	DB	010H
	DB	0ffH
	DB	038H
	DB	018H
	DB	010H
	DB	0ffH
	DB	038H
	DB	01cH
	DB	08H
	DB	0ffH
	DB	038H
	DB	01cH
	DB	010H
	DB	0ffH
	DB	038H
	DB	01cH
	DB	08H
	DB	0ffH
	DB	038H
	DB	018H
	DB	010H
	DB	0ffH
	DB	038H
	DB	01cH
	DB	08H
	DB	0ffH
	DB	038H
	DB	01cH
	DB	010H
	DB	0ffH
	DB	030H
	DB	018H
	DB	010H
	DB	0ffH
	DB	038H
	DB	018H
	DB	08H
	DB	0ffH
	DB	038H
	DB	01cH
	DB	010H
	DB	0ffH
	DB	038H
	DB	01cH
	DB	010H
	DB	0ffH
	DB	038H
	DB	018H
	DB	08H
	DB	0ffH
	DB	038H
	DB	01cH
	DB	010H
	DB	0ffH
	DB	038H
	DB	01cH
	DB	08H
	DB	0ffH
	DB	038H
	DB	01cH
	DB	08H
	DB	0ffH
	DB	030H
	DB	01cH
	DB	010H
	DB	0ffH
	DB	00H
	DB	00H
	DB	00H
	DB	00H
	DB	00H
	DB	00H
	DB	00H
	DB	00H
	DB	00H
	DB	00H
	DB	00H
	DB	00H
	DB	00H
	DB	00H
	DB	00H
	DB	00H
	DB	070H
	DB	05cH
	DB	030H
	DB	0ffH
	DB	070H
	DB	060H
	DB	038H
	DB	0ffH
	DB	078H
	DB	05cH
	DB	038H
	DB	0ffH
	DB	070H
	DB	05cH
	DB	030H
	DB	0ffH
	DB	070H
	DB	05cH
	DB	038H
	DB	0ffH
	DB	078H
	DB	060H
	DB	030H
	DB	0ffH
	DB	070H
	DB	05cH
	DB	038H
	DB	0ffH
	DB	070H
	DB	05cH
	DB	038H
	DB	0ffH
	DB	00H
	DB	00H
	DB	00H
	DB	00H
	DB	00H
	DB	00H
	DB	00H
	DB	00H
	DB	00H
	DB	00H
	DB	00H
	DB	00H
	DB	00H
	DB	00H
	DB	00H
	DB	00H
	DB	00H
	DB	00H
	DB	00H
	DB	00H
	DB	00H
	DB	00H
	DB	00H
	DB	00H
	DB	00H
	DB	00H
	DB	00H
	DB	00H
	DB	00H
	DB	00H
	DB	00H
	DB	00H
	DB	00H
	DB	00H
	DB	00H
	DB	00H
	DB	00H
	DB	00H
	DB	00H
	DB	00H
	DB	00H
	DB	00H
	DB	00H
	DB	00H
	DB	00H
	DB	00H
	DB	00H
	DB	00H
	DB	00H
	DB	00H
	DB	00H
	DB	00H
	DB	00H
	DB	00H
	DB	00H
	DB	00H
	DB	00H
	DB	00H
	DB	00H
	DB	00H
	DB	00H
	DB	00H
	DB	00H
	DB	00H
	DB	00H
	DB	00H
	DB	00H
	DB	00H
	DB	00H
	DB	00H
	DB	00H
	DB	00H
	DB	00H
	DB	00H
	DB	00H
	DB	00H
	DB	00H
	DB	00H
	DB	00H
	DB	00H
	DB	00H
	DB	00H
	DB	00H
	DB	00H
	DB	00H
	DB	00H
	DB	00H
	DB	00H
	DB	00H
	DB	00H
	DB	00H
	DB	00H
	DB	00H
	DB	00H
	DB	00H
	DB	00H
	DB	00H
	DB	00H
	DB	00H
	DB	00H
	DB	00H
	DB	00H
	DB	00H
	DB	00H
	DB	00H
	DB	00H
	DB	00H
	DB	00H
	DB	00H
	DB	00H
	DB	00H
	DB	00H
	DB	00H
	DB	00H
	DB	00H
	DB	00H
	DB	00H
	DB	00H
	DB	00H
	DB	00H
	DB	00H
	DB	00H
	DB	00H
	DB	00H
	DB	00H
	DB	00H
	DB	00H
	DB	00H
	DB	00H
	DB	00H
	DB	00H
	DB	00H
	DB	00H
	DB	00H
	DB	00H
	DB	00H
	DB	00H
	DB	00H
	DB	00H
	DB	00H
	DB	00H
	DB	00H
	DB	00H
	DB	00H
	DB	00H
	DB	00H
	DB	00H
	DB	00H
	DB	00H
	DB	00H
	DB	00H
	DB	00H
	DB	00H
	DB	00H
	DB	00H
	DB	00H
	DB	00H
	DB	00H
	DB	00H
	DB	00H
	DB	00H
	DB	00H
	DB	00H
	DB	00H
	DB	00H
	DB	00H
	DB	00H
	DB	00H
	DB	00H
	DB	00H
	DB	00H
	DB	00H
	DB	00H
	DB	00H
	DB	00H
	DB	00H
	DB	00H
	DB	00H
	DB	00H
	DB	00H
	DB	00H
	DB	00H
	DB	00H
	DB	00H
	DB	00H
	DB	00H
	DB	00H
	DB	00H
	DB	00H
	DB	00H
	DB	00H
	DB	00H
	DB	00H
	DB	00H
	DB	00H
	DB	00H
	DB	00H
	DB	00H
	DB	00H
	DB	00H
	DB	00H
	DB	00H
	DB	00H
	DB	00H
	DB	038H
	DB	01cH
	DB	08H
	DB	0ffH
	DB	038H
	DB	01cH
	DB	010H
	DB	0ffH
	DB	038H
	DB	01cH
	DB	08H
	DB	0ffH
	DB	038H
	DB	01cH
	DB	08H
	DB	0ffH
	DB	038H
	DB	01cH
	DB	010H
	DB	0ffH
	DB	038H
	DB	01cH
	DB	010H
	DB	0ffH
	DB	038H
	DB	01cH
	DB	08H
	DB	0ffH
	DB	038H
	DB	018H
	DB	010H
	DB	0ffH
	DB	038H
	DB	01cH
	DB	08H
	DB	0ffH
	DB	038H
	DB	018H
	DB	010H
	DB	0ffH
	DB	038H
	DB	01cH
	DB	08H
	DB	0ffH
	DB	038H
	DB	01cH
	DB	08H
	DB	0ffH
	DB	038H
	DB	018H
	DB	010H
	DB	0ffH
	DB	038H
	DB	01cH
	DB	08H
	DB	0ffH
	DB	038H
	DB	01cH
	DB	010H
	DB	0ffH
	DB	038H
	DB	01cH
	DB	08H
	DB	0ffH
	DB	038H
	DB	018H
	DB	010H
	DB	0ffH
	DB	030H
	DB	01cH
	DB	08H
	DB	0ffH
	DB	038H
	DB	01cH
	DB	08H
	DB	0ffH
	DB	038H
	DB	018H
	DB	010H
	DB	0ffH
	DB	030H
	DB	01cH
	DB	08H
	DB	0ffH
	DB	038H
	DB	01cH
	DB	010H
	DB	0ffH
	DB	038H
	DB	01cH
	DB	08H
	DB	0ffH
	DB	038H
	DB	018H
	DB	010H
	DB	0ffH
	DB	038H
	DB	01cH
	DB	08H
	DB	0ffH
	DB	038H
	DB	018H
	DB	08H
	DB	0ffH
	DB	030H
	DB	01cH
	DB	010H
	DB	0ffH
	DB	038H
	DB	018H
	DB	08H
	DB	0ffH
	DB	038H
	DB	01cH
	DB	08H
	DB	0ffH
	DB	038H
	DB	01cH
	DB	010H
	DB	0ffH
	DB	030H
	DB	01cH
	DB	08H
	DB	0ffH
	DB	038H
	DB	01cH
	DB	08H
	DB	0ffH
	DB	038H
	DB	018H
	DB	010H
	DB	0ffH
	DB	038H
	DB	01cH
	DB	08H
	DB	0ffH
	DB	038H
	DB	01cH
	DB	010H
	DB	0ffH
	DB	038H
	DB	01cH
	DB	08H
	DB	0ffH
	DB	038H
	DB	018H
	DB	08H
	DB	0ffH
	DB	038H
	DB	01cH
	DB	010H
	DB	0ffH
	DB	038H
	DB	01cH
	DB	08H
	DB	0ffH
	DB	038H
	DB	01cH
	DB	010H
	DB	0ffH
	DB	038H
	DB	01cH
	DB	08H
	DB	0ffH
	DB	030H
	DB	018H
	DB	010H
	DB	0ffH
	DB	038H
	DB	01cH
	DB	010H
	DB	0ffH
	DB	038H
	DB	01cH
	DB	08H
	DB	0ffH
	DB	038H
	DB	018H
	DB	010H
	DB	0ffH
	DB	038H
	DB	01cH
	DB	010H
	DB	0ffH
	DB	038H
	DB	018H
	DB	08H
	DB	0ffH
	DB	00H
	DB	00H
	DB	00H
	DB	00H
	DB	00H
	DB	00H
	DB	00H
	DB	00H
	DB	00H
	DB	00H
	DB	00H
	DB	00H
	DB	00H
	DB	00H
	DB	00H
	DB	00H
	DB	078H
	DB	05cH
	DB	030H
	DB	0ffH
	DB	070H
	DB	060H
	DB	038H
	DB	0ffH
	DB	078H
	DB	060H
	DB	030H
	DB	0ffH
	DB	078H
	DB	05cH
	DB	038H
	DB	0ffH
	DB	078H
	DB	05cH
	DB	030H
	DB	0ffH
	DB	070H
	DB	060H
	DB	038H
	DB	0ffH
	DB	078H
	DB	060H
	DB	030H
	DB	0ffH
	DB	078H
	DB	05cH
	DB	038H
	DB	0ffH
	DB	00H
	DB	00H
	DB	00H
	DB	00H
	DB	00H
	DB	00H
	DB	00H
	DB	00H
	DB	00H
	DB	00H
	DB	00H
	DB	00H
	DB	00H
	DB	00H
	DB	00H
	DB	00H
	DB	00H
	DB	00H
	DB	00H
	DB	00H
	DB	00H
	DB	00H
	DB	00H
	DB	00H
	DB	00H
	DB	00H
	DB	00H
	DB	00H
	DB	00H
	DB	00H
	DB	00H
	DB	00H
	DB	00H
	DB	00H
	DB	00H
	DB	00H
	DB	00H
	DB	00H
	DB	00H
	DB	00H
	DB	00H
	DB	00H
	DB	00H
	DB	00H
	DB	00H
	DB	00H
	DB	00H
	DB	00H
	DB	00H
	DB	00H
	DB	00H
	DB	00H
	DB	00H
	DB	00H
	DB	00H
	DB	00H
	DB	00H
	DB	00H
	DB	00H
	DB	00H
	DB	00H
	DB	00H
	DB	00H
	DB	00H
	DB	00H
	DB	00H
	DB	00H
	DB	00H
	DB	00H
	DB	00H
	DB	00H
	DB	00H
	DB	00H
	DB	00H
	DB	00H
	DB	00H
	DB	00H
	DB	00H
	DB	00H
	DB	00H
	DB	00H
	DB	00H
	DB	00H
	DB	00H
	DB	00H
	DB	00H
	DB	00H
	DB	00H
	DB	00H
	DB	00H
	DB	00H
	DB	00H
	DB	00H
	DB	00H
	DB	00H
	DB	00H
	DB	00H
	DB	00H
	DB	00H
	DB	00H
	DB	00H
	DB	00H
	DB	00H
	DB	00H
	DB	00H
	DB	00H
	DB	00H
	DB	00H
	DB	00H
	DB	00H
	DB	00H
	DB	00H
	DB	00H
	DB	00H
	DB	00H
	DB	00H
	DB	00H
	DB	00H
	DB	00H
	DB	00H
	DB	00H
	DB	00H
	DB	00H
	DB	00H
	DB	00H
	DB	00H
	DB	00H
	DB	00H
	DB	00H
	DB	00H
	DB	00H
	DB	00H
	DB	00H
	DB	00H
	DB	00H
	DB	00H
	DB	00H
	DB	00H
	DB	00H
	DB	00H
	DB	00H
	DB	00H
	DB	00H
	DB	00H
	DB	00H
	DB	00H
	DB	00H
	DB	00H
	DB	00H
	DB	00H
	DB	00H
	DB	00H
	DB	00H
	DB	00H
	DB	00H
	DB	00H
	DB	00H
	DB	00H
	DB	00H
	DB	00H
	DB	00H
	DB	00H
	DB	00H
	DB	00H
	DB	00H
	DB	00H
	DB	00H
	DB	00H
	DB	00H
	DB	00H
	DB	00H
	DB	00H
	DB	00H
	DB	00H
	DB	00H
	DB	00H
	DB	00H
	DB	00H
	DB	00H
	DB	00H
	DB	00H
	DB	00H
	DB	00H
	DB	00H
	DB	00H
	DB	00H
	DB	00H
	DB	00H
	DB	00H
	DB	00H
	DB	00H
	DB	00H
	DB	00H
	DB	00H
	DB	00H
	DB	00H
	DB	00H
	DB	00H
	DB	00H
	DB	00H
	DB	00H
	DB	00H
	DB	00H
	DB	00H
	DB	038H
	DB	01cH
	DB	010H
	DB	0efH
	DB	038H
	DB	018H
	DB	08H
	DB	0ffH
	DB	038H
	DB	01cH
	DB	010H
	DB	0ffH
	DB	038H
	DB	018H
	DB	08H
	DB	0ffH
	DB	038H
	DB	01cH
	DB	010H
	DB	0ffH
	DB	038H
	DB	01cH
	DB	08H
	DB	0ffH
	DB	030H
	DB	018H
	DB	08H
	DB	0ffH
	DB	038H
	DB	01cH
	DB	010H
	DB	0ffH
	DB	038H
	DB	01cH
	DB	010H
	DB	0ffH
	DB	038H
	DB	01cH
	DB	08H
	DB	0ffH
	DB	038H
	DB	018H
	DB	010H
	DB	0ffH
	DB	030H
	DB	01cH
	DB	010H
	DB	0ffH
	DB	038H
	DB	01cH
	DB	08H
	DB	0ffH
	DB	038H
	DB	018H
	DB	08H
	DB	0ffH
	DB	038H
	DB	01cH
	DB	010H
	DB	0ffH
	DB	038H
	DB	01cH
	DB	08H
	DB	0ffH
	DB	038H
	DB	01cH
	DB	010H
	DB	0ffH
	DB	038H
	DB	01cH
	DB	010H
	DB	0ffH
	DB	038H
	DB	01cH
	DB	08H
	DB	0ffH
	DB	038H
	DB	01cH
	DB	010H
	DB	0ffH
	DB	038H
	DB	018H
	DB	08H
	DB	0ffH
	DB	038H
	DB	01cH
	DB	08H
	DB	0ffH
	DB	038H
	DB	01cH
	DB	010H
	DB	0ffH
	DB	038H
	DB	01cH
	DB	010H
	DB	0ffH
	DB	038H
	DB	018H
	DB	08H
	DB	0ffH
	DB	038H
	DB	01cH
	DB	010H
	DB	0ffH
	DB	038H
	DB	01cH
	DB	010H
	DB	0ffH
	DB	038H
	DB	01cH
	DB	08H
	DB	0ffH
	DB	038H
	DB	018H
	DB	010H
	DB	0ffH
	DB	038H
	DB	018H
	DB	010H
	DB	0ffH
	DB	038H
	DB	01cH
	DB	08H
	DB	0ffH
	DB	038H
	DB	01cH
	DB	010H
	DB	0ffH
	DB	038H
	DB	01cH
	DB	08H
	DB	0ffH
	DB	030H
	DB	018H
	DB	010H
	DB	0ffH
	DB	038H
	DB	01cH
	DB	010H
	DB	0ffH
	DB	038H
	DB	01cH
	DB	08H
	DB	0ffH
	DB	030H
	DB	01cH
	DB	010H
	DB	0ffH
	DB	038H
	DB	01cH
	DB	08H
	DB	0ffH
	DB	038H
	DB	01cH
	DB	010H
	DB	0ffH
	DB	038H
	DB	01cH
	DB	08H
	DB	0ffH
	DB	038H
	DB	018H
	DB	08H
	DB	0ffH
	DB	038H
	DB	01cH
	DB	08H
	DB	0ffH
	DB	038H
	DB	01cH
	DB	010H
	DB	0ffH
	DB	038H
	DB	01cH
	DB	08H
	DB	0ffH
	DB	030H
	DB	01cH
	DB	010H
	DB	0ffH
	DB	038H
	DB	01cH
	DB	08H
	DB	0ffH
	DB	038H
	DB	01cH
	DB	08H
	DB	0ffH
	DB	00H
	DB	00H
	DB	00H
	DB	00H
	DB	00H
	DB	00H
	DB	00H
	DB	00H
	DB	00H
	DB	00H
	DB	00H
	DB	00H
	DB	00H
	DB	00H
	DB	00H
	DB	00H
	DB	078H
	DB	05cH
	DB	038H
	DB	0ffH
	DB	070H
	DB	060H
	DB	030H
	DB	0ffH
	DB	070H
	DB	05cH
	DB	030H
	DB	0ffH
	DB	078H
	DB	060H
	DB	038H
	DB	0ffH
	DB	078H
	DB	05cH
	DB	030H
	DB	0dfH
	DB	070H
	DB	060H
	DB	038H
	DB	0ffH
	DB	078H
	DB	060H
	DB	030H
	DB	0ffH
	DB	070H
	DB	05cH
	DB	030H
	DB	0ffH
	DB	070H
	DB	064H
	DB	038H
	DB	020H
	DB	00H
	DB	00H
	DB	00H
	DB	00H
	DB	00H
	DB	00H
	DB	00H
	DB	00H
	DB	00H
	DB	00H
	DB	00H
	DB	00H
	DB	00H
	DB	00H
	DB	00H
	DB	00H
	DB	00H
	DB	00H
	DB	00H
	DB	00H
	DB	00H
	DB	00H
	DB	00H
	DB	00H
	DB	00H
	DB	00H
	DB	00H
	DB	00H
	DB	00H
	DB	00H
	DB	00H
	DB	00H
	DB	00H
	DB	00H
	DB	00H
	DB	00H
	DB	00H
	DB	00H
	DB	00H
	DB	00H
	DB	00H
	DB	00H
	DB	00H
	DB	00H
	DB	00H
	DB	00H
	DB	00H
	DB	00H
	DB	00H
	DB	00H
	DB	00H
	DB	00H
	DB	00H
	DB	00H
	DB	00H
	DB	00H
	DB	00H
	DB	00H
	DB	00H
	DB	00H
	DB	00H
	DB	00H
	DB	00H
	DB	00H
	DB	00H
	DB	00H
	DB	00H
	DB	00H
	DB	00H
	DB	00H
	DB	00H
	DB	00H
	DB	00H
	DB	00H
	DB	00H
	DB	00H
	DB	00H
	DB	00H
	DB	00H
	DB	00H
	DB	00H
	DB	00H
	DB	00H
	DB	00H
	DB	00H
	DB	00H
	DB	00H
	DB	00H
	DB	00H
	DB	00H
	DB	00H
	DB	00H
	DB	00H
	DB	00H
	DB	00H
	DB	00H
	DB	00H
	DB	00H
	DB	00H
	DB	00H
	DB	00H
	DB	00H
	DB	00H
	DB	00H
	DB	00H
	DB	00H
	DB	00H
	DB	00H
	DB	00H
	DB	00H
	DB	00H
	DB	00H
	DB	00H
	DB	00H
	DB	00H
	DB	00H
	DB	00H
	DB	00H
	DB	00H
	DB	00H
	DB	00H
	DB	00H
	DB	00H
	DB	00H
	DB	00H
	DB	00H
	DB	00H
	DB	00H
	DB	00H
	DB	00H
	DB	00H
	DB	00H
	DB	00H
	DB	00H
	DB	00H
	DB	00H
	DB	00H
	DB	00H
	DB	00H
	DB	00H
	DB	00H
	DB	00H
	DB	00H
	DB	00H
	DB	00H
	DB	00H
	DB	00H
	DB	00H
	DB	00H
	DB	00H
	DB	00H
	DB	00H
	DB	00H
	DB	00H
	DB	00H
	DB	00H
	DB	00H
	DB	00H
	DB	00H
	DB	00H
	DB	00H
	DB	00H
	DB	00H
	DB	00H
	DB	00H
	DB	00H
	DB	00H
	DB	00H
	DB	00H
	DB	00H
	DB	00H
	DB	00H
	DB	00H
	DB	00H
	DB	00H
	DB	00H
	DB	00H
	DB	00H
	DB	00H
	DB	00H
	DB	00H
	DB	00H
	DB	00H
	DB	00H
	DB	00H
	DB	00H
	DB	00H
	DB	00H
	DB	00H
	DB	00H
	DB	00H
	DB	00H
	DB	00H
	DB	00H
	DB	00H
	DB	00H
	DB	00H
	DB	00H
	DB	00H
	DB	00H
	DB	038H
	DB	01cH
	DB	08H
	DB	0beH
	DB	030H
	DB	01cH
	DB	010H
	DB	0ffH
	DB	038H
	DB	01cH
	DB	010H
	DB	0ffH
	DB	038H
	DB	018H
	DB	08H
	DB	0ffH
	DB	030H
	DB	01cH
	DB	010H
	DB	0ffH
	DB	038H
	DB	01cH
	DB	08H
	DB	0ffH
	DB	038H
	DB	01cH
	DB	010H
	DB	0ffH
	DB	038H
	DB	01cH
	DB	08H
	DB	0ffH
	DB	038H
	DB	01cH
	DB	08H
	DB	0ffH
	DB	038H
	DB	01cH
	DB	010H
	DB	0ffH
	DB	038H
	DB	018H
	DB	08H
	DB	0ffH
	DB	038H
	DB	01cH
	DB	010H
	DB	0ffH
	DB	038H
	DB	01cH
	DB	08H
	DB	0ffH
	DB	038H
	DB	01cH
	DB	010H
	DB	0ffH
	DB	030H
	DB	018H
	DB	010H
	DB	0ffH
	DB	038H
	DB	01cH
	DB	08H
	DB	0ffH
	DB	038H
	DB	01cH
	DB	08H
	DB	0ffH
	DB	038H
	DB	018H
	DB	010H
	DB	0ffH
	DB	038H
	DB	01cH
	DB	010H
	DB	0ffH
	DB	038H
	DB	01cH
	DB	08H
	DB	0ffH
	DB	038H
	DB	01cH
	DB	010H
	DB	0ffH
	DB	030H
	DB	018H
	DB	08H
	DB	0ffH
	DB	038H
	DB	01cH
	DB	010H
	DB	0ffH
	DB	038H
	DB	01cH
	DB	08H
	DB	0ffH
	DB	030H
	DB	01cH
	DB	08H
	DB	0ffH
	DB	038H
	DB	01cH
	DB	010H
	DB	0ffH
	DB	038H
	DB	01cH
	DB	08H
	DB	0ffH
	DB	038H
	DB	01cH
	DB	08H
	DB	0ffH
	DB	030H
	DB	01cH
	DB	010H
	DB	0ffH
	DB	038H
	DB	01cH
	DB	08H
	DB	0ffH
	DB	038H
	DB	018H
	DB	010H
	DB	0ffH
	DB	038H
	DB	01cH
	DB	08H
	DB	0ffH
	DB	038H
	DB	01cH
	DB	010H
	DB	0ffH
	DB	038H
	DB	01cH
	DB	08H
	DB	0ffH
	DB	038H
	DB	018H
	DB	08H
	DB	0ffH
	DB	038H
	DB	01cH
	DB	010H
	DB	0ffH
	DB	038H
	DB	01cH
	DB	010H
	DB	0ffH
	DB	038H
	DB	018H
	DB	08H
	DB	0ffH
	DB	038H
	DB	018H
	DB	010H
	DB	0ffH
	DB	030H
	DB	01cH
	DB	010H
	DB	0ffH
	DB	038H
	DB	01cH
	DB	08H
	DB	0ffH
	DB	038H
	DB	01cH
	DB	010H
	DB	0ffH
	DB	038H
	DB	018H
	DB	08H
	DB	0ffH
	DB	038H
	DB	01cH
	DB	010H
	DB	0ffH
	DB	038H
	DB	01cH
	DB	08H
	DB	0ffH
	DB	038H
	DB	018H
	DB	010H
	DB	0ffH
	DB	030H
	DB	018H
	DB	010H
	DB	0aeH
	DB	00H
	DB	00H
	DB	00H
	DB	00H
	DB	00H
	DB	00H
	DB	00H
	DB	00H
	DB	00H
	DB	00H
	DB	00H
	DB	00H
	DB	078H
	DB	060H
	DB	038H
	DB	030H
	DB	070H
	DB	060H
	DB	030H
	DB	0ffH
	DB	078H
	DB	05cH
	DB	038H
	DB	0ffH
	DB	070H
	DB	05cH
	DB	038H
	DB	0ffH
	DB	070H
	DB	060H
	DB	030H
	DB	0efH
	DB	070H
	DB	05cH
	DB	038H
	DB	0beH
	DB	078H
	DB	05cH
	DB	030H
	DB	0ffH
	DB	070H
	DB	060H
	DB	038H
	DB	0ffH
	DB	078H
	DB	05cH
	DB	038H
	DB	0ffH
	DB	078H
	DB	060H
	DB	038H
	DB	06dH
	DB	00H
	DB	00H
	DB	00H
	DB	00H
	DB	00H
	DB	00H
	DB	00H
	DB	00H
	DB	00H
	DB	00H
	DB	00H
	DB	00H
	DB	00H
	DB	00H
	DB	00H
	DB	00H
	DB	00H
	DB	00H
	DB	00H
	DB	00H
	DB	00H
	DB	00H
	DB	00H
	DB	00H
	DB	00H
	DB	00H
	DB	00H
	DB	00H
	DB	00H
	DB	00H
	DB	00H
	DB	00H
	DB	00H
	DB	00H
	DB	00H
	DB	00H
	DB	00H
	DB	00H
	DB	00H
	DB	00H
	DB	00H
	DB	00H
	DB	00H
	DB	00H
	DB	00H
	DB	00H
	DB	00H
	DB	00H
	DB	00H
	DB	00H
	DB	00H
	DB	00H
	DB	00H
	DB	00H
	DB	00H
	DB	00H
	DB	00H
	DB	00H
	DB	00H
	DB	00H
	DB	00H
	DB	00H
	DB	00H
	DB	00H
	DB	00H
	DB	00H
	DB	00H
	DB	00H
	DB	00H
	DB	00H
	DB	00H
	DB	00H
	DB	00H
	DB	00H
	DB	00H
	DB	00H
	DB	00H
	DB	00H
	DB	00H
	DB	00H
	DB	00H
	DB	00H
	DB	00H
	DB	00H
	DB	00H
	DB	00H
	DB	00H
	DB	00H
	DB	00H
	DB	00H
	DB	00H
	DB	00H
	DB	00H
	DB	00H
	DB	00H
	DB	00H
	DB	00H
	DB	00H
	DB	00H
	DB	00H
	DB	00H
	DB	00H
	DB	00H
	DB	00H
	DB	00H
	DB	00H
	DB	00H
	DB	00H
	DB	00H
	DB	00H
	DB	00H
	DB	00H
	DB	00H
	DB	00H
	DB	00H
	DB	00H
	DB	00H
	DB	00H
	DB	00H
	DB	00H
	DB	00H
	DB	00H
	DB	00H
	DB	00H
	DB	00H
	DB	00H
	DB	00H
	DB	00H
	DB	00H
	DB	00H
	DB	00H
	DB	00H
	DB	00H
	DB	00H
	DB	00H
	DB	00H
	DB	00H
	DB	00H
	DB	00H
	DB	00H
	DB	00H
	DB	00H
	DB	00H
	DB	00H
	DB	00H
	DB	00H
	DB	00H
	DB	00H
	DB	00H
	DB	00H
	DB	00H
	DB	00H
	DB	00H
	DB	00H
	DB	00H
	DB	00H
	DB	00H
	DB	00H
	DB	00H
	DB	00H
	DB	00H
	DB	00H
	DB	00H
	DB	00H
	DB	00H
	DB	00H
	DB	00H
	DB	00H
	DB	00H
	DB	00H
	DB	00H
	DB	00H
	DB	00H
	DB	00H
	DB	00H
	DB	00H
	DB	00H
	DB	00H
	DB	00H
	DB	00H
	DB	00H
	DB	00H
	DB	00H
	DB	00H
	DB	00H
	DB	00H
	DB	00H
	DB	00H
	DB	00H
	DB	00H
	DB	00H
	DB	00H
	DB	00H
	DB	00H
	DB	00H
	DB	00H
	DB	00H
	DB	00H
	DB	00H
	DB	00H
	DB	038H
	DB	018H
	DB	010H
	DB	020H
	DB	038H
	DB	01cH
	DB	08H
	DB	0efH
	DB	038H
	DB	01cH
	DB	08H
	DB	0ffH
	DB	038H
	DB	01cH
	DB	010H
	DB	0ffH
	DB	038H
	DB	018H
	DB	08H
	DB	0ffH
	DB	038H
	DB	01cH
	DB	010H
	DB	0ffH
	DB	038H
	DB	018H
	DB	010H
	DB	0ffH
	DB	038H
	DB	018H
	DB	08H
	DB	0ffH
	DB	030H
	DB	01cH
	DB	010H
	DB	0ffH
	DB	038H
	DB	01cH
	DB	08H
	DB	0ffH
	DB	038H
	DB	01cH
	DB	010H
	DB	0ffH
	DB	038H
	DB	01cH
	DB	08H
	DB	0ffH
	DB	038H
	DB	01cH
	DB	010H
	DB	0ffH
	DB	038H
	DB	01cH
	DB	08H
	DB	0ffH
	DB	038H
	DB	018H
	DB	010H
	DB	0ffH
	DB	038H
	DB	01cH
	DB	08H
	DB	0ffH
	DB	038H
	DB	01cH
	DB	08H
	DB	0ffH
	DB	030H
	DB	018H
	DB	010H
	DB	0ffH
	DB	038H
	DB	01cH
	DB	08H
	DB	0ffH
	DB	038H
	DB	01cH
	DB	08H
	DB	0ffH
	DB	038H
	DB	01cH
	DB	010H
	DB	0ffH
	DB	038H
	DB	01cH
	DB	010H
	DB	0ffH
	DB	038H
	DB	018H
	DB	08H
	DB	0ffH
	DB	038H
	DB	01cH
	DB	010H
	DB	0ffH
	DB	038H
	DB	01cH
	DB	010H
	DB	0ffH
	DB	038H
	DB	018H
	DB	08H
	DB	0ffH
	DB	038H
	DB	018H
	DB	010H
	DB	0ffH
	DB	038H
	DB	01cH
	DB	010H
	DB	0ffH
	DB	038H
	DB	01cH
	DB	08H
	DB	0ffH
	DB	038H
	DB	01cH
	DB	08H
	DB	0ffH
	DB	038H
	DB	01cH
	DB	010H
	DB	0ffH
	DB	030H
	DB	018H
	DB	08H
	DB	0ffH
	DB	038H
	DB	01cH
	DB	010H
	DB	0ffH
	DB	038H
	DB	01cH
	DB	08H
	DB	0ffH
	DB	038H
	DB	01cH
	DB	08H
	DB	0ffH
	DB	038H
	DB	018H
	DB	010H
	DB	0ffH
	DB	038H
	DB	01cH
	DB	08H
	DB	0ffH
	DB	038H
	DB	01cH
	DB	08H
	DB	0ffH
	DB	038H
	DB	01cH
	DB	010H
	DB	0ffH
	DB	038H
	DB	01cH
	DB	08H
	DB	0ffH
	DB	038H
	DB	01cH
	DB	010H
	DB	0ffH
	DB	038H
	DB	018H
	DB	010H
	DB	0ffH
	DB	030H
	DB	01cH
	DB	08H
	DB	0ffH
	DB	038H
	DB	01cH
	DB	08H
	DB	0ffH
	DB	038H
	DB	01cH
	DB	010H
	DB	0ffH
	DB	038H
	DB	01cH
	DB	08H
	DB	0efH
	DB	038H
	DB	018H
	DB	08H
	DB	020H
	DB	00H
	DB	00H
	DB	00H
	DB	00H
	DB	00H
	DB	00H
	DB	00H
	DB	00H
	DB	00H
	DB	00H
	DB	00H
	DB	00H
	DB	070H
	DB	05cH
	DB	038H
	DB	061H
	DB	078H
	DB	060H
	DB	030H
	DB	0ffH
	DB	078H
	DB	05cH
	DB	030H
	DB	0ffH
	DB	070H
	DB	060H
	DB	038H
	DB	0ffH
	DB	078H
	DB	05cH
	DB	030H
	DB	0beH
	DB	070H
	DB	05cH
	DB	030H
	DB	07dH
	DB	078H
	DB	060H
	DB	038H
	DB	0ffH
	DB	070H
	DB	05cH
	DB	030H
	DB	0ffH
	DB	070H
	DB	060H
	DB	030H
	DB	0ffH
	DB	078H
	DB	05cH
	DB	038H
	DB	0beH
	DB	00H
	DB	00H
	DB	00H
	DB	00H
	DB	00H
	DB	00H
	DB	00H
	DB	00H
	DB	00H
	DB	00H
	DB	00H
	DB	00H
	DB	00H
	DB	00H
	DB	00H
	DB	00H
	DB	00H
	DB	00H
	DB	00H
	DB	00H
	DB	00H
	DB	00H
	DB	00H
	DB	00H
	DB	00H
	DB	00H
	DB	00H
	DB	00H
	DB	00H
	DB	00H
	DB	00H
	DB	00H
	DB	00H
	DB	00H
	DB	00H
	DB	00H
	DB	00H
	DB	00H
	DB	00H
	DB	00H
	DB	00H
	DB	00H
	DB	00H
	DB	00H
	DB	00H
	DB	00H
	DB	00H
	DB	00H
	DB	00H
	DB	00H
	DB	00H
	DB	00H
	DB	00H
	DB	00H
	DB	00H
	DB	00H
	DB	00H
	DB	00H
	DB	00H
	DB	00H
	DB	00H
	DB	00H
	DB	00H
	DB	00H
	DB	00H
	DB	00H
	DB	00H
	DB	00H
	DB	00H
	DB	00H
	DB	00H
	DB	00H
	DB	00H
	DB	00H
	DB	00H
	DB	00H
	DB	00H
	DB	00H
	DB	00H
	DB	00H
	DB	00H
	DB	00H
	DB	00H
	DB	00H
	DB	00H
	DB	00H
	DB	00H
	DB	00H
	DB	00H
	DB	00H
	DB	00H
	DB	00H
	DB	00H
	DB	00H
	DB	00H
	DB	00H
	DB	00H
	DB	00H
	DB	00H
	DB	00H
	DB	00H
	DB	00H
	DB	00H
	DB	00H
	DB	00H
	DB	00H
	DB	00H
	DB	00H
	DB	00H
	DB	00H
	DB	00H
	DB	00H
	DB	00H
	DB	00H
	DB	00H
	DB	00H
	DB	00H
	DB	00H
	DB	00H
	DB	00H
	DB	00H
	DB	00H
	DB	00H
	DB	00H
	DB	00H
	DB	00H
	DB	00H
	DB	00H
	DB	00H
	DB	00H
	DB	00H
	DB	00H
	DB	00H
	DB	00H
	DB	00H
	DB	00H
	DB	00H
	DB	00H
	DB	00H
	DB	00H
	DB	00H
	DB	00H
	DB	00H
	DB	00H
	DB	00H
	DB	00H
	DB	00H
	DB	00H
	DB	00H
	DB	00H
	DB	00H
	DB	00H
	DB	00H
	DB	00H
	DB	00H
	DB	00H
	DB	00H
	DB	00H
	DB	00H
	DB	00H
	DB	00H
	DB	00H
	DB	00H
	DB	00H
	DB	00H
	DB	00H
	DB	00H
	DB	00H
	DB	00H
	DB	00H
	DB	00H
	DB	00H
	DB	00H
	DB	00H
	DB	00H
	DB	00H
	DB	00H
	DB	00H
	DB	00H
	DB	00H
	DB	00H
	DB	00H
	DB	00H
	DB	00H
	DB	00H
	DB	00H
	DB	00H
	DB	00H
	DB	00H
	DB	00H
	DB	00H
	DB	00H
	DB	00H
	DB	00H
	DB	00H
	DB	00H
	DB	00H
	DB	00H
	DB	00H
	DB	00H
	DB	00H
	DB	00H
	DB	00H
	DB	00H
	DB	038H
	DB	018H
	DB	010H
	DB	020H
	DB	030H
	DB	01cH
	DB	010H
	DB	0aeH
	DB	038H
	DB	01cH
	DB	08H
	DB	0ffH
	DB	038H
	DB	01cH
	DB	08H
	DB	0ffH
	DB	038H
	DB	01cH
	DB	010H
	DB	0ffH
	DB	038H
	DB	01cH
	DB	08H
	DB	0ffH
	DB	038H
	DB	01cH
	DB	010H
	DB	0ffH
	DB	038H
	DB	018H
	DB	010H
	DB	0ffH
	DB	038H
	DB	01cH
	DB	08H
	DB	0ffH
	DB	030H
	DB	01cH
	DB	08H
	DB	0ffH
	DB	038H
	DB	018H
	DB	010H
	DB	0ffH
	DB	038H
	DB	01cH
	DB	08H
	DB	0ffH
	DB	030H
	DB	01cH
	DB	010H
	DB	0ffH
	DB	038H
	DB	01cH
	DB	08H
	DB	0ffH
	DB	038H
	DB	01cH
	DB	010H
	DB	0ffH
	DB	038H
	DB	01cH
	DB	010H
	DB	0ffH
	DB	038H
	DB	01cH
	DB	08H
	DB	0ffH
	DB	038H
	DB	018H
	DB	010H
	DB	0ffH
	DB	030H
	DB	01cH
	DB	08H
	DB	0ffH
	DB	038H
	DB	018H
	DB	010H
	DB	0ffH
	DB	038H
	DB	01cH
	DB	08H
	DB	0ffH
	DB	038H
	DB	01cH
	DB	08H
	DB	0ffH
	DB	038H
	DB	018H
	DB	010H
	DB	0ffH
	DB	038H
	DB	01cH
	DB	08H
	DB	0ffH
	DB	030H
	DB	01cH
	DB	08H
	DB	0ffH
	DB	038H
	DB	01cH
	DB	010H
	DB	0ffH
	DB	038H
	DB	018H
	DB	010H
	DB	0ffH
	DB	038H
	DB	01cH
	DB	08H
	DB	0ffH
	DB	038H
	DB	01cH
	DB	010H
	DB	0ffH
	DB	038H
	DB	01cH
	DB	08H
	DB	0ffH
	DB	038H
	DB	01cH
	DB	010H
	DB	0ffH
	DB	038H
	DB	018H
	DB	010H
	DB	0ffH
	DB	038H
	DB	01cH
	DB	010H
	DB	0ffH
	DB	030H
	DB	01cH
	DB	08H
	DB	0ffH
	DB	038H
	DB	01cH
	DB	010H
	DB	0ffH
	DB	038H
	DB	01cH
	DB	010H
	DB	0ffH
	DB	030H
	DB	01cH
	DB	08H
	DB	0ffH
	DB	038H
	DB	018H
	DB	08H
	DB	0ffH
	DB	038H
	DB	01cH
	DB	010H
	DB	0ffH
	DB	038H
	DB	01cH
	DB	08H
	DB	0ffH
	DB	038H
	DB	01cH
	DB	010H
	DB	0ffH
	DB	038H
	DB	018H
	DB	010H
	DB	0ffH
	DB	030H
	DB	01cH
	DB	08H
	DB	0efH
	DB	038H
	DB	01cH
	DB	010H
	DB	0beH
	DB	038H
	DB	018H
	DB	08H
	DB	020H
	DB	00H
	DB	00H
	DB	00H
	DB	00H
	DB	00H
	DB	00H
	DB	00H
	DB	00H
	DB	00H
	DB	00H
	DB	00H
	DB	00H
	DB	00H
	DB	00H
	DB	00H
	DB	00H
	DB	078H
	DB	05cH
	DB	038H
	DB	0dfH
	DB	070H
	DB	05cH
	DB	030H
	DB	0ffH
	DB	070H
	DB	060H
	DB	038H
	DB	0ffH
	DB	078H
	DB	05cH
	DB	030H
	DB	0ffH
	DB	078H
	DB	05cH
	DB	038H
	DB	06dH
	DB	070H
	DB	060H
	DB	030H
	DB	010H
	DB	078H
	DB	060H
	DB	038H
	DB	0ffH
	DB	078H
	DB	05cH
	DB	030H
	DB	0ffH
	DB	070H
	DB	05cH
	DB	030H
	DB	0ffH
	DB	070H
	DB	060H
	DB	038H
	DB	0ffH
	DB	078H
	DB	05cH
	DB	030H
	DB	071H
	DB	00H
	DB	00H
	DB	00H
	DB	00H
	DB	00H
	DB	00H
	DB	00H
	DB	00H
	DB	00H
	DB	00H
	DB	00H
	DB	00H
	DB	00H
	DB	00H
	DB	00H
	DB	00H
	DB	00H
	DB	00H
	DB	00H
	DB	00H
	DB	00H
	DB	00H
	DB	00H
	DB	00H
	DB	00H
	DB	00H
	DB	00H
	DB	00H
	DB	00H
	DB	00H
	DB	00H
	DB	00H
	DB	00H
	DB	00H
	DB	00H
	DB	00H
	DB	00H
	DB	00H
	DB	00H
	DB	00H
	DB	00H
	DB	00H
	DB	00H
	DB	00H
	DB	00H
	DB	00H
	DB	00H
	DB	00H
	DB	00H
	DB	00H
	DB	00H
	DB	00H
	DB	00H
	DB	00H
	DB	00H
	DB	00H
	DB	00H
	DB	00H
	DB	00H
	DB	00H
	DB	00H
	DB	00H
	DB	00H
	DB	00H
	DB	00H
	DB	00H
	DB	00H
	DB	00H
	DB	00H
	DB	00H
	DB	00H
	DB	00H
	DB	00H
	DB	00H
	DB	00H
	DB	00H
	DB	00H
	DB	00H
	DB	00H
	DB	00H
	DB	00H
	DB	00H
	DB	00H
	DB	00H
	DB	00H
	DB	00H
	DB	00H
	DB	00H
	DB	00H
	DB	00H
	DB	00H
	DB	00H
	DB	00H
	DB	00H
	DB	00H
	DB	00H
	DB	00H
	DB	00H
	DB	00H
	DB	00H
	DB	00H
	DB	00H
	DB	00H
	DB	00H
	DB	00H
	DB	00H
	DB	00H
	DB	00H
	DB	00H
	DB	00H
	DB	00H
	DB	00H
	DB	00H
	DB	00H
	DB	00H
	DB	00H
	DB	00H
	DB	00H
	DB	00H
	DB	00H
	DB	00H
	DB	00H
	DB	00H
	DB	00H
	DB	00H
	DB	00H
	DB	00H
	DB	00H
	DB	00H
	DB	00H
	DB	00H
	DB	00H
	DB	00H
	DB	00H
	DB	00H
	DB	00H
	DB	00H
	DB	00H
	DB	00H
	DB	00H
	DB	00H
	DB	00H
	DB	00H
	DB	00H
	DB	00H
	DB	00H
	DB	00H
	DB	00H
	DB	00H
	DB	00H
	DB	00H
	DB	00H
	DB	00H
	DB	00H
	DB	00H
	DB	00H
	DB	00H
	DB	00H
	DB	00H
	DB	00H
	DB	00H
	DB	00H
	DB	00H
	DB	00H
	DB	00H
	DB	00H
	DB	00H
	DB	00H
	DB	00H
	DB	00H
	DB	00H
	DB	00H
	DB	00H
	DB	00H
	DB	00H
	DB	00H
	DB	00H
	DB	00H
	DB	00H
	DB	00H
	DB	00H
	DB	00H
	DB	00H
	DB	00H
	DB	00H
	DB	00H
	DB	00H
	DB	00H
	DB	00H
	DB	00H
	DB	00H
	DB	00H
	DB	00H
	DB	00H
	DB	00H
	DB	00H
	DB	00H
	DB	00H
	DB	00H
	DB	00H
	DB	00H
	DB	00H
	DB	00H
	DB	00H
	DB	00H
	DB	00H
	DB	00H
	DB	00H
	DB	00H
	DB	00H
	DB	00H
	DB	00H
	DB	00H
	DB	00H
	DB	00H
	DB	00H
	DB	00H
	DB	00H
	DB	00H
	DB	00H
	DB	00H
	DB	00H
	DB	00H
	DB	00H
	DB	00H
	DB	00H
	DB	00H
	DB	00H
	DB	00H
	DB	00H
	DB	00H
	DB	00H
	DB	00H
	DB	00H
	DB	00H
	DB	00H
	DB	00H
	DB	00H
	DB	00H
	DB	00H
	DB	00H
	DB	00H
	DB	00H
	DB	00H
	DB	00H
	DB	00H
	DB	00H
	DB	00H
	DB	00H
	DB	00H
	DB	00H
	DB	00H
	DB	00H
	DB	00H
	DB	00H
	DB	00H
	DB	00H
	DB	00H
	DB	00H
	DB	00H
	DB	00H
	DB	00H
	DB	00H
	DB	00H
	DB	00H
	DB	00H
	DB	00H
	DB	00H
	DB	00H
	DB	00H
	DB	00H
	DB	00H
	DB	00H
	DB	00H
	DB	00H
	DB	00H
	DB	00H
	DB	00H
	DB	00H
	DB	00H
	DB	00H
	DB	00H
	DB	00H
	DB	00H
	DB	00H
	DB	00H
	DB	00H
	DB	00H
	DB	00H
	DB	00H
	DB	00H
	DB	00H
	DB	00H
	DB	00H
	DB	00H
	DB	00H
	DB	00H
	DB	00H
	DB	00H
	DB	00H
	DB	00H
	DB	00H
	DB	00H
	DB	00H
	DB	00H
	DB	00H
	DB	00H
	DB	00H
	DB	00H
	DB	00H
	DB	00H
	DB	00H
	DB	00H
	DB	00H
	DB	00H
	DB	00H
	DB	00H
	DB	00H
	DB	00H
	DB	00H
	DB	00H
	DB	00H
	DB	00H
	DB	00H
	DB	00H
	DB	00H
	DB	00H
	DB	00H
	DB	00H
	DB	00H
	DB	00H
	DB	00H
	DB	00H
	DB	00H
	DB	00H
	DB	00H
	DB	00H
	DB	00H
	DB	00H
	DB	00H
	DB	00H
	DB	00H
	DB	00H
	DB	00H
	DB	00H
	DB	00H
	DB	00H
	DB	00H
	DB	00H
	DB	00H
	DB	00H
	DB	00H
	DB	00H
	DB	00H
	DB	00H
	DB	00H
	DB	00H
	DB	00H
	DB	00H
	DB	00H
	DB	00H
	DB	00H
	DB	00H
	DB	00H
	DB	00H
	DB	00H
	DB	00H
	DB	00H
	DB	00H
	DB	00H
	DB	00H
	DB	00H
	DB	00H
	DB	00H
	DB	00H
	DB	00H
	DB	00H
	DB	00H
	DB	00H
	DB	00H
	DB	00H
	DB	00H
	DB	00H
	DB	00H
	DB	00H
	DB	00H
	DB	00H
	DB	00H
	DB	00H
	DB	00H
	DB	00H
	DB	00H
	DB	070H
	DB	05cH
	DB	030H
	DB	071H
	DB	078H
	DB	060H
	DB	038H
	DB	0ffH
	DB	070H
	DB	060H
	DB	038H
	DB	0ffH
	DB	070H
	DB	05cH
	DB	030H
	DB	0ffH
	DB	078H
	DB	060H
	DB	038H
	DB	0ffH
	DB	070H
	DB	058H
	DB	030H
	DB	020H
	DB	00H
	DB	00H
	DB	00H
	DB	00H
	DB	070H
	DB	05cH
	DB	030H
	DB	0beH
	DB	078H
	DB	060H
	DB	038H
	DB	0ffH
	DB	078H
	DB	060H
	DB	038H
	DB	0ffH
	DB	070H
	DB	05cH
	DB	030H
	DB	0ffH
	DB	070H
	DB	060H
	DB	038H
	DB	0efH
	DB	078H
	DB	058H
	DB	038H
	DB	030H
	DB	00H
	DB	00H
	DB	00H
	DB	00H
	DB	00H
	DB	00H
	DB	00H
	DB	00H
	DB	00H
	DB	00H
	DB	00H
	DB	00H
	DB	00H
	DB	00H
	DB	00H
	DB	00H
	DB	00H
	DB	00H
	DB	00H
	DB	00H
	DB	00H
	DB	00H
	DB	00H
	DB	00H
	DB	00H
	DB	00H
	DB	00H
	DB	00H
	DB	00H
	DB	00H
	DB	00H
	DB	00H
	DB	00H
	DB	00H
	DB	00H
	DB	00H
	DB	00H
	DB	00H
	DB	00H
	DB	00H
	DB	00H
	DB	00H
	DB	00H
	DB	00H
	DB	00H
	DB	00H
	DB	00H
	DB	00H
	DB	00H
	DB	00H
	DB	00H
	DB	00H
	DB	00H
	DB	00H
	DB	00H
	DB	00H
	DB	00H
	DB	00H
	DB	00H
	DB	00H
	DB	00H
	DB	00H
	DB	00H
	DB	00H
	DB	00H
	DB	00H
	DB	00H
	DB	00H
	DB	00H
	DB	00H
	DB	00H
	DB	00H
	DB	00H
	DB	00H
	DB	00H
	DB	00H
	DB	00H
	DB	00H
	DB	00H
	DB	00H
	DB	00H
	DB	00H
	DB	00H
	DB	00H
	DB	00H
	DB	00H
	DB	00H
	DB	00H
	DB	00H
	DB	00H
	DB	00H
	DB	00H
	DB	00H
	DB	00H
	DB	00H
	DB	00H
	DB	00H
	DB	00H
	DB	00H
	DB	00H
	DB	00H
	DB	00H
	DB	00H
	DB	00H
	DB	00H
	DB	00H
	DB	00H
	DB	00H
	DB	00H
	DB	00H
	DB	00H
	DB	00H
	DB	00H
	DB	00H
	DB	00H
	DB	00H
	DB	00H
	DB	00H
	DB	00H
	DB	00H
	DB	00H
	DB	00H
	DB	00H
	DB	00H
	DB	00H
	DB	00H
	DB	00H
	DB	00H
	DB	00H
	DB	00H
	DB	00H
	DB	00H
	DB	00H
	DB	00H
	DB	00H
	DB	00H
	DB	00H
	DB	00H
	DB	00H
	DB	00H
	DB	00H
	DB	00H
	DB	00H
	DB	00H
	DB	00H
	DB	00H
	DB	00H
	DB	00H
	DB	00H
	DB	00H
	DB	00H
	DB	00H
	DB	00H
	DB	00H
	DB	00H
	DB	00H
	DB	00H
	DB	00H
	DB	00H
	DB	00H
	DB	00H
	DB	00H
	DB	00H
	DB	00H
	DB	00H
	DB	00H
	DB	00H
	DB	00H
	DB	00H
	DB	00H
	DB	00H
	DB	00H
	DB	00H
	DB	00H
	DB	00H
	DB	00H
	DB	00H
	DB	00H
	DB	00H
	DB	00H
	DB	00H
	DB	00H
	DB	00H
	DB	00H
	DB	00H
	DB	00H
	DB	00H
	DB	00H
	DB	00H
	DB	00H
	DB	00H
	DB	00H
	DB	00H
	DB	00H
	DB	00H
	DB	00H
	DB	00H
	DB	00H
	DB	00H
	DB	00H
	DB	00H
	DB	00H
	DB	00H
	DB	00H
	DB	00H
	DB	00H
	DB	00H
	DB	00H
	DB	00H
	DB	00H
	DB	00H
	DB	00H
	DB	00H
	DB	00H
	DB	00H
	DB	00H
	DB	00H
	DB	00H
	DB	00H
	DB	00H
	DB	00H
	DB	00H
	DB	00H
	DB	00H
	DB	00H
	DB	00H
	DB	00H
	DB	00H
	DB	00H
	DB	00H
	DB	00H
	DB	00H
	DB	00H
	DB	00H
	DB	00H
	DB	00H
	DB	00H
	DB	00H
	DB	00H
	DB	00H
	DB	00H
	DB	00H
	DB	00H
	DB	00H
	DB	00H
	DB	00H
	DB	00H
	DB	00H
	DB	00H
	DB	00H
	DB	00H
	DB	00H
	DB	00H
	DB	00H
	DB	00H
	DB	00H
	DB	00H
	DB	00H
	DB	00H
	DB	00H
	DB	00H
	DB	00H
	DB	00H
	DB	00H
	DB	00H
	DB	00H
	DB	00H
	DB	00H
	DB	00H
	DB	00H
	DB	00H
	DB	00H
	DB	00H
	DB	00H
	DB	00H
	DB	00H
	DB	00H
	DB	00H
	DB	00H
	DB	00H
	DB	00H
	DB	00H
	DB	00H
	DB	00H
	DB	00H
	DB	00H
	DB	00H
	DB	00H
	DB	00H
	DB	00H
	DB	00H
	DB	00H
	DB	00H
	DB	00H
	DB	00H
	DB	00H
	DB	00H
	DB	00H
	DB	00H
	DB	00H
	DB	00H
	DB	00H
	DB	00H
	DB	00H
	DB	00H
	DB	00H
	DB	00H
	DB	00H
	DB	00H
	DB	00H
	DB	00H
	DB	00H
	DB	00H
	DB	00H
	DB	00H
	DB	00H
	DB	00H
	DB	00H
	DB	00H
	DB	00H
	DB	00H
	DB	00H
	DB	00H
	DB	00H
	DB	00H
	DB	00H
	DB	00H
	DB	00H
	DB	00H
	DB	00H
	DB	00H
	DB	00H
	DB	00H
	DB	00H
	DB	00H
	DB	00H
	DB	00H
	DB	00H
	DB	00H
	DB	00H
	DB	00H
	DB	00H
	DB	00H
	DB	00H
	DB	00H
	DB	00H
	DB	00H
	DB	00H
	DB	00H
	DB	00H
	DB	00H
	DB	00H
	DB	00H
	DB	00H
	DB	00H
	DB	00H
	DB	00H
	DB	00H
	DB	00H
	DB	00H
	DB	00H
	DB	00H
	DB	00H
	DB	00H
	DB	00H
	DB	00H
	DB	00H
	DB	00H
	DB	00H
	DB	00H
	DB	00H
	DB	00H
	DB	00H
	DB	00H
	DB	00H
	DB	00H
	DB	00H
	DB	00H
	DB	00H
	DB	00H
	DB	00H
	DB	00H
	DB	00H
	DB	00H
	DB	078H
	DB	060H
	DB	038H
	DB	030H
	DB	070H
	DB	05cH
	DB	030H
	DB	0efH
	DB	078H
	DB	060H
	DB	030H
	DB	0ffH
	DB	078H
	DB	05cH
	DB	038H
	DB	0ffH
	DB	070H
	DB	060H
	DB	030H
	DB	0ffH
	DB	070H
	DB	05cH
	DB	030H
	DB	09eH
	DB	00H
	DB	00H
	DB	00H
	DB	00H
	DB	00H
	DB	00H
	DB	00H
	DB	00H
	DB	070H
	DB	058H
	DB	030H
	DB	020H
	DB	070H
	DB	05cH
	DB	038H
	DB	0efH
	DB	078H
	DB	060H
	DB	030H
	DB	0ffH
	DB	078H
	DB	05cH
	DB	030H
	DB	0ffH
	DB	070H
	DB	060H
	DB	038H
	DB	0ffH
	DB	070H
	DB	060H
	DB	030H
	DB	0efH
	DB	078H
	DB	05cH
	DB	030H
	DB	071H
	DB	00H
	DB	00H
	DB	00H
	DB	00H
	DB	00H
	DB	00H
	DB	00H
	DB	00H
	DB	00H
	DB	00H
	DB	00H
	DB	00H
	DB	00H
	DB	00H
	DB	00H
	DB	00H
	DB	00H
	DB	00H
	DB	00H
	DB	00H
	DB	00H
	DB	00H
	DB	00H
	DB	00H
	DB	00H
	DB	00H
	DB	00H
	DB	00H
	DB	00H
	DB	00H
	DB	00H
	DB	00H
	DB	00H
	DB	00H
	DB	00H
	DB	00H
	DB	00H
	DB	00H
	DB	00H
	DB	00H
	DB	00H
	DB	00H
	DB	00H
	DB	00H
	DB	00H
	DB	00H
	DB	00H
	DB	00H
	DB	00H
	DB	00H
	DB	00H
	DB	00H
	DB	00H
	DB	00H
	DB	00H
	DB	00H
	DB	00H
	DB	00H
	DB	00H
	DB	00H
	DB	00H
	DB	00H
	DB	00H
	DB	00H
	DB	00H
	DB	00H
	DB	00H
	DB	00H
	DB	00H
	DB	00H
	DB	00H
	DB	00H
	DB	00H
	DB	00H
	DB	00H
	DB	00H
	DB	00H
	DB	00H
	DB	00H
	DB	00H
	DB	00H
	DB	00H
	DB	00H
	DB	00H
	DB	00H
	DB	00H
	DB	00H
	DB	00H
	DB	00H
	DB	00H
	DB	00H
	DB	00H
	DB	00H
	DB	00H
	DB	00H
	DB	00H
	DB	00H
	DB	00H
	DB	00H
	DB	00H
	DB	00H
	DB	00H
	DB	00H
	DB	00H
	DB	00H
	DB	00H
	DB	00H
	DB	00H
	DB	00H
	DB	00H
	DB	00H
	DB	00H
	DB	00H
	DB	00H
	DB	00H
	DB	00H
	DB	00H
	DB	00H
	DB	00H
	DB	00H
	DB	00H
	DB	00H
	DB	00H
	DB	00H
	DB	00H
	DB	00H
	DB	00H
	DB	00H
	DB	00H
	DB	00H
	DB	00H
	DB	00H
	DB	00H
	DB	00H
	DB	00H
	DB	00H
	DB	00H
	DB	00H
	DB	00H
	DB	00H
	DB	00H
	DB	00H
	DB	00H
	DB	00H
	DB	00H
	DB	00H
	DB	00H
	DB	00H
	DB	00H
	DB	00H
	DB	00H
	DB	00H
	DB	00H
	DB	00H
	DB	00H
	DB	00H
	DB	00H
	DB	00H
	DB	00H
	DB	00H
	DB	00H
	DB	00H
	DB	00H
	DB	00H
	DB	00H
	DB	00H
	DB	00H
	DB	00H
	DB	00H
	DB	00H
	DB	00H
	DB	00H
	DB	00H
	DB	00H
	DB	00H
	DB	00H
	DB	00H
	DB	00H
	DB	00H
	DB	00H
	DB	00H
	DB	00H
	DB	00H
	DB	00H
	DB	00H
	DB	00H
	DB	00H
	DB	00H
	DB	00H
	DB	00H
	DB	00H
	DB	00H
	DB	00H
	DB	00H
	DB	00H
	DB	00H
	DB	00H
	DB	00H
	DB	00H
	DB	00H
	DB	00H
	DB	00H
	DB	00H
	DB	00H
	DB	00H
	DB	00H
	DB	00H
	DB	00H
	DB	00H
	DB	00H
	DB	00H
	DB	00H
	DB	00H
	DB	00H
	DB	00H
	DB	00H
	DB	00H
	DB	00H
	DB	00H
	DB	00H
	DB	00H
	DB	00H
	DB	00H
	DB	00H
	DB	00H
	DB	00H
	DB	00H
	DB	00H
	DB	00H
	DB	00H
	DB	00H
	DB	00H
	DB	00H
	DB	00H
	DB	00H
	DB	00H
	DB	00H
	DB	00H
	DB	00H
	DB	00H
	DB	00H
	DB	00H
	DB	00H
	DB	00H
	DB	00H
	DB	00H
	DB	00H
	DB	00H
	DB	00H
	DB	00H
	DB	00H
	DB	00H
	DB	00H
	DB	00H
	DB	00H
	DB	00H
	DB	00H
	DB	00H
	DB	00H
	DB	00H
	DB	00H
	DB	00H
	DB	00H
	DB	00H
	DB	00H
	DB	00H
	DB	00H
	DB	00H
	DB	00H
	DB	00H
	DB	00H
	DB	00H
	DB	00H
	DB	00H
	DB	00H
	DB	00H
	DB	00H
	DB	00H
	DB	00H
	DB	00H
	DB	00H
	DB	00H
	DB	00H
	DB	00H
	DB	00H
	DB	00H
	DB	00H
	DB	00H
	DB	00H
	DB	00H
	DB	00H
	DB	00H
	DB	00H
	DB	00H
	DB	00H
	DB	00H
	DB	00H
	DB	00H
	DB	00H
	DB	00H
	DB	00H
	DB	00H
	DB	00H
	DB	00H
	DB	00H
	DB	00H
	DB	00H
	DB	00H
	DB	00H
	DB	00H
	DB	00H
	DB	00H
	DB	00H
	DB	00H
	DB	00H
	DB	00H
	DB	00H
	DB	00H
	DB	00H
	DB	00H
	DB	00H
	DB	00H
	DB	00H
	DB	00H
	DB	00H
	DB	00H
	DB	00H
	DB	00H
	DB	00H
	DB	00H
	DB	00H
	DB	00H
	DB	00H
	DB	00H
	DB	00H
	DB	00H
	DB	00H
	DB	00H
	DB	00H
	DB	00H
	DB	00H
	DB	00H
	DB	00H
	DB	00H
	DB	00H
	DB	00H
	DB	00H
	DB	00H
	DB	00H
	DB	00H
	DB	00H
	DB	00H
	DB	00H
	DB	00H
	DB	00H
	DB	00H
	DB	00H
	DB	00H
	DB	00H
	DB	00H
	DB	00H
	DB	00H
	DB	00H
	DB	00H
	DB	00H
	DB	00H
	DB	00H
	DB	00H
	DB	00H
	DB	00H
	DB	00H
	DB	00H
	DB	00H
	DB	00H
	DB	00H
	DB	00H
	DB	070H
	DB	05cH
	DB	030H
	DB	071H
	DB	070H
	DB	05cH
	DB	038H
	DB	0efH
	DB	078H
	DB	060H
	DB	038H
	DB	0ffH
	DB	070H
	DB	05cH
	DB	030H
	DB	0ffH
	DB	078H
	DB	05cH
	DB	038H
	DB	0ffH
	DB	078H
	DB	060H
	DB	030H
	DB	0efH
	DB	070H
	DB	058H
	DB	030H
	DB	020H
	DB	00H
	DB	00H
	DB	00H
	DB	00H
	DB	00H
	DB	00H
	DB	00H
	DB	00H
	DB	00H
	DB	00H
	DB	00H
	DB	00H
	DB	070H
	DB	05cH
	DB	030H
	DB	071H
	DB	070H
	DB	05cH
	DB	038H
	DB	0ffH
	DB	078H
	DB	060H
	DB	038H
	DB	0ffH
	DB	078H
	DB	05cH
	DB	030H
	DB	0ffH
	DB	070H
	DB	05cH
	DB	038H
	DB	0ffH
	DB	070H
	DB	060H
	DB	030H
	DB	0ffH
	DB	078H
	DB	060H
	DB	038H
	DB	0dfH
	DB	078H
	DB	05cH
	DB	038H
	DB	05dH
	DB	078H
	DB	060H
	DB	038H
	DB	030H
	DB	00H
	DB	00H
	DB	00H
	DB	00H
	DB	00H
	DB	00H
	DB	00H
	DB	00H
	DB	00H
	DB	00H
	DB	00H
	DB	00H
	DB	00H
	DB	00H
	DB	00H
	DB	00H
	DB	00H
	DB	00H
	DB	00H
	DB	00H
	DB	00H
	DB	00H
	DB	00H
	DB	00H
	DB	00H
	DB	00H
	DB	00H
	DB	00H
	DB	00H
	DB	00H
	DB	00H
	DB	00H
	DB	00H
	DB	00H
	DB	00H
	DB	00H
	DB	00H
	DB	00H
	DB	00H
	DB	00H
	DB	00H
	DB	00H
	DB	00H
	DB	00H
	DB	00H
	DB	00H
	DB	00H
	DB	00H
	DB	00H
	DB	00H
	DB	00H
	DB	00H
	DB	00H
	DB	00H
	DB	00H
	DB	00H
	DB	00H
	DB	00H
	DB	00H
	DB	00H
	DB	00H
	DB	00H
	DB	00H
	DB	00H
	DB	00H
	DB	00H
	DB	00H
	DB	00H
	DB	00H
	DB	00H
	DB	00H
	DB	00H
	DB	00H
	DB	00H
	DB	00H
	DB	00H
	DB	00H
	DB	00H
	DB	00H
	DB	00H
	DB	00H
	DB	00H
	DB	00H
	DB	00H
	DB	00H
	DB	00H
	DB	00H
	DB	00H
	DB	00H
	DB	00H
	DB	00H
	DB	00H
	DB	00H
	DB	00H
	DB	00H
	DB	00H
	DB	00H
	DB	00H
	DB	00H
	DB	00H
	DB	00H
	DB	00H
	DB	00H
	DB	00H
	DB	00H
	DB	00H
	DB	00H
	DB	00H
	DB	00H
	DB	00H
	DB	00H
	DB	00H
	DB	00H
	DB	00H
	DB	00H
	DB	00H
	DB	00H
	DB	00H
	DB	00H
	DB	00H
	DB	00H
	DB	00H
	DB	00H
	DB	00H
	DB	00H
	DB	00H
	DB	00H
	DB	00H
	DB	00H
	DB	00H
	DB	00H
	DB	00H
	DB	00H
	DB	00H
	DB	00H
	DB	00H
	DB	00H
	DB	00H
	DB	00H
	DB	00H
	DB	00H
	DB	00H
	DB	00H
	DB	00H
	DB	00H
	DB	00H
	DB	00H
	DB	00H
	DB	00H
	DB	00H
	DB	00H
	DB	00H
	DB	00H
	DB	00H
	DB	00H
	DB	00H
	DB	00H
	DB	00H
	DB	00H
	DB	00H
	DB	00H
	DB	00H
	DB	00H
	DB	00H
	DB	00H
	DB	00H
	DB	00H
	DB	00H
	DB	00H
	DB	00H
	DB	00H
	DB	00H
	DB	00H
	DB	00H
	DB	00H
	DB	00H
	DB	00H
	DB	00H
	DB	00H
	DB	00H
	DB	00H
	DB	00H
	DB	00H
	DB	00H
	DB	00H
	DB	00H
	DB	00H
	DB	00H
	DB	00H
	DB	00H
	DB	00H
	DB	00H
	DB	00H
	DB	00H
	DB	00H
	DB	00H
	DB	00H
	DB	00H
	DB	00H
	DB	00H
	DB	00H
	DB	00H
	DB	00H
	DB	00H
	DB	00H
	DB	00H
	DB	00H
	DB	00H
	DB	00H
	DB	00H
	DB	00H
	DB	00H
	DB	00H
	DB	00H
	DB	00H
	DB	00H
	DB	00H
	DB	00H
	DB	00H
	DB	00H
	DB	00H
	DB	00H
	DB	00H
	DB	00H
	DB	00H
	DB	00H
	DB	00H
	DB	00H
	DB	00H
	DB	00H
	DB	00H
	DB	00H
	DB	00H
	DB	00H
	DB	00H
	DB	00H
	DB	00H
	DB	00H
	DB	00H
	DB	00H
	DB	00H
	DB	00H
	DB	00H
	DB	00H
	DB	00H
	DB	00H
	DB	00H
	DB	00H
	DB	00H
	DB	00H
	DB	00H
	DB	00H
	DB	00H
	DB	00H
	DB	00H
	DB	00H
	DB	00H
	DB	00H
	DB	00H
	DB	00H
	DB	00H
	DB	00H
	DB	00H
	DB	00H
	DB	00H
	DB	00H
	DB	00H
	DB	00H
	DB	00H
	DB	00H
	DB	00H
	DB	00H
	DB	00H
	DB	00H
	DB	00H
	DB	00H
	DB	00H
	DB	00H
	DB	00H
	DB	00H
	DB	00H
	DB	00H
	DB	00H
	DB	00H
	DB	00H
	DB	00H
	DB	00H
	DB	00H
	DB	00H
	DB	00H
	DB	00H
	DB	00H
	DB	00H
	DB	00H
	DB	00H
	DB	00H
	DB	00H
	DB	00H
	DB	00H
	DB	00H
	DB	00H
	DB	00H
	DB	00H
	DB	00H
	DB	00H
	DB	00H
	DB	00H
	DB	00H
	DB	00H
	DB	00H
	DB	00H
	DB	00H
	DB	00H
	DB	00H
	DB	00H
	DB	00H
	DB	00H
	DB	00H
	DB	00H
	DB	00H
	DB	00H
	DB	00H
	DB	00H
	DB	00H
	DB	00H
	DB	00H
	DB	00H
	DB	00H
	DB	00H
	DB	00H
	DB	00H
	DB	00H
	DB	00H
	DB	00H
	DB	00H
	DB	00H
	DB	00H
	DB	00H
	DB	00H
	DB	00H
	DB	00H
	DB	00H
	DB	00H
	DB	00H
	DB	00H
	DB	00H
	DB	00H
	DB	00H
	DB	00H
	DB	00H
	DB	00H
	DB	00H
	DB	070H
	DB	060H
	DB	038H
	DB	020H
	DB	070H
	DB	05cH
	DB	038H
	DB	06dH
	DB	070H
	DB	060H
	DB	030H
	DB	0beH
	DB	078H
	DB	05cH
	DB	030H
	DB	0ffH
	DB	078H
	DB	060H
	DB	038H
	DB	0ffH
	DB	070H
	DB	060H
	DB	030H
	DB	0ffH
	DB	070H
	DB	05cH
	DB	038H
	DB	0ffH
	DB	070H
	DB	060H
	DB	030H
	DB	0ffH
	DB	078H
	DB	05cH
	DB	038H
	DB	06dH
	DB	00H
	DB	00H
	DB	00H
	DB	00H
	DB	00H
	DB	00H
	DB	00H
	DB	00H
	DB	00H
	DB	00H
	DB	00H
	DB	00H
	DB	00H
	DB	00H
	DB	00H
	DB	00H
	DB	00H
	DB	00H
	DB	00H
	DB	00H
	DB	070H
	DB	05cH
	DB	030H
	DB	07dH
	DB	078H
	DB	060H
	DB	038H
	DB	0ffH
	DB	070H
	DB	05cH
	DB	030H
	DB	0ffH
	DB	078H
	DB	05cH
	DB	038H
	DB	0ffH
	DB	078H
	DB	060H
	DB	038H
	DB	0ffH
	DB	070H
	DB	05cH
	DB	030H
	DB	0ffH
	DB	070H
	DB	060H
	DB	030H
	DB	0ffH
	DB	070H
	DB	060H
	DB	030H
	DB	0ffH
	DB	078H
	DB	05cH
	DB	038H
	DB	0ffH
	DB	070H
	DB	060H
	DB	030H
	DB	0ffH
	DB	070H
	DB	05cH
	DB	030H
	DB	0ffH
	DB	078H
	DB	060H
	DB	038H
	DB	0ffH
	DB	070H
	DB	05cH
	DB	030H
	DB	0ffH
	DB	078H
	DB	060H
	DB	038H
	DB	0ffH
	DB	070H
	DB	05cH
	DB	030H
	DB	0ffH
	DB	078H
	DB	060H
	DB	038H
	DB	0ffH
	DB	070H
	DB	05cH
	DB	030H
	DB	0ffH
	DB	078H
	DB	060H
	DB	038H
	DB	0ffH
	DB	070H
	DB	05cH
	DB	030H
	DB	0ffH
	DB	078H
	DB	060H
	DB	038H
	DB	0ffH
	DB	070H
	DB	05cH
	DB	030H
	DB	0ffH
	DB	078H
	DB	060H
	DB	038H
	DB	0ffH
	DB	070H
	DB	05cH
	DB	030H
	DB	0ffH
	DB	078H
	DB	060H
	DB	038H
	DB	0ffH
	DB	070H
	DB	05cH
	DB	030H
	DB	0ffH
	DB	078H
	DB	060H
	DB	030H
	DB	0ffH
	DB	070H
	DB	05cH
	DB	038H
	DB	0ffH
	DB	078H
	DB	060H
	DB	030H
	DB	0ffH
	DB	070H
	DB	05cH
	DB	038H
	DB	0ffH
	DB	078H
	DB	060H
	DB	030H
	DB	0ffH
	DB	070H
	DB	05cH
	DB	030H
	DB	0ffH
	DB	078H
	DB	060H
	DB	038H
	DB	0ffH
	DB	070H
	DB	05cH
	DB	030H
	DB	0ffH
	DB	070H
	DB	060H
	DB	030H
	DB	0ffH
	DB	078H
	DB	05cH
	DB	038H
	DB	0ffH
	DB	070H
	DB	060H
	DB	030H
	DB	0ffH
	DB	070H
	DB	05cH
	DB	030H
	DB	0ffH
	DB	078H
	DB	060H
	DB	038H
	DB	0ffH
	DB	070H
	DB	05cH
	DB	030H
	DB	0ffH
	DB	070H
	DB	060H
	DB	030H
	DB	0ffH
	DB	078H
	DB	05cH
	DB	038H
	DB	0ffH
	DB	070H
	DB	060H
	DB	030H
	DB	0ffH
	DB	070H
	DB	05cH
	DB	030H
	DB	0ffH
	DB	078H
	DB	060H
	DB	038H
	DB	0ffH
	DB	070H
	DB	05cH
	DB	030H
	DB	0ffH
	DB	070H
	DB	05cH
	DB	030H
	DB	0ffH
	DB	078H
	DB	060H
	DB	038H
	DB	0ffH
	DB	070H
	DB	05cH
	DB	030H
	DB	0ffH
	DB	070H
	DB	05cH
	DB	030H
	DB	0ffH
	DB	078H
	DB	060H
	DB	038H
	DB	0ffH
	DB	070H
	DB	05cH
	DB	030H
	DB	0ffH
	DB	070H
	DB	05cH
	DB	038H
	DB	0ffH
	DB	070H
	DB	060H
	DB	030H
	DB	0ffH
	DB	070H
	DB	05cH
	DB	038H
	DB	0ffH
	DB	070H
	DB	05cH
	DB	038H
	DB	0ffH
	DB	070H
	DB	05cH
	DB	030H
	DB	0ffH
	DB	070H
	DB	05cH
	DB	038H
	DB	0ffH
	DB	070H
	DB	05cH
	DB	038H
	DB	0ffH
	DB	070H
	DB	05cH
	DB	030H
	DB	0ffH
	DB	070H
	DB	05cH
	DB	038H
	DB	0ffH
	DB	070H
	DB	05cH
	DB	030H
	DB	0ffH
	DB	070H
	DB	05cH
	DB	038H
	DB	0ffH
	DB	070H
	DB	05cH
	DB	030H
	DB	0ffH
	DB	070H
	DB	05cH
	DB	038H
	DB	0ffH
	DB	070H
	DB	05cH
	DB	030H
	DB	0ffH
	DB	070H
	DB	05cH
	DB	038H
	DB	0ffH
	DB	070H
	DB	05cH
	DB	030H
	DB	0ffH
	DB	070H
	DB	05cH
	DB	038H
	DB	0ffH
	DB	070H
	DB	05cH
	DB	030H
	DB	0ffH
	DB	070H
	DB	05cH
	DB	038H
	DB	0ffH
	DB	070H
	DB	05cH
	DB	030H
	DB	0ffH
	DB	070H
	DB	05cH
	DB	038H
	DB	0ffH
	DB	070H
	DB	05cH
	DB	038H
	DB	0ffH
	DB	070H
	DB	05cH
	DB	030H
	DB	0ffH
	DB	070H
	DB	060H
	DB	038H
	DB	0ffH
	DB	070H
	DB	05cH
	DB	038H
	DB	0ffH
	DB	070H
	DB	05cH
	DB	030H
	DB	0ffH
	DB	070H
	DB	05cH
	DB	038H
	DB	0ffH
	DB	070H
	DB	060H
	DB	030H
	DB	0ffH
	DB	070H
	DB	05cH
	DB	030H
	DB	0ffH
	DB	070H
	DB	05cH
	DB	038H
	DB	0ffH
	DB	070H
	DB	05cH
	DB	030H
	DB	0ffH
	DB	070H
	DB	05cH
	DB	030H
	DB	0ffH
	DB	070H
	DB	05cH
	DB	038H
	DB	0ffH
	DB	070H
	DB	05cH
	DB	030H
	DB	0ffH
	DB	070H
	DB	05cH
	DB	030H
	DB	0ffH
	DB	070H
	DB	05cH
	DB	038H
	DB	0ffH
	DB	070H
	DB	05cH
	DB	030H
	DB	0ffH
	DB	070H
	DB	05cH
	DB	030H
	DB	0ffH
	DB	070H
	DB	05cH
	DB	038H
	DB	0ffH
	DB	070H
	DB	05cH
	DB	030H
	DB	0ffH
	DB	070H
	DB	05cH
	DB	038H
	DB	0ffH
	DB	070H
	DB	05cH
	DB	030H
	DB	0ffH
	DB	070H
	DB	05cH
	DB	030H
	DB	0ffH
	DB	070H
	DB	05cH
	DB	038H
	DB	0ffH
	DB	070H
	DB	05cH
	DB	030H
	DB	0ffH
	DB	078H
	DB	05cH
	DB	030H
	DB	0ffH
	DB	070H
	DB	060H
	DB	038H
	DB	0ffH
	DB	078H
	DB	05cH
	DB	038H
	DB	0ffH
	DB	078H
	DB	060H
	DB	030H
	DB	0ffH
	DB	070H
	DB	05cH
	DB	038H
	DB	0ffH
	DB	078H
	DB	05cH
	DB	030H
	DB	0ffH
	DB	078H
	DB	060H
	DB	030H
	DB	0ffH
	DB	070H
	DB	05cH
	DB	038H
	DB	07dH
	DB	00H
	DB	00H
	DB	00H
	DB	00H
	DB	00H
	DB	00H
	DB	00H
	DB	00H
	DB	00H
	DB	00H
	DB	00H
	DB	00H
	DB	00H
	DB	00H
	DB	00H
	DB	00H
	DB	00H
	DB	00H
	DB	00H
	DB	00H
	DB	00H
	DB	00H
	DB	00H
	DB	00H
	DB	00H
	DB	00H
	DB	00H
	DB	00H
	DB	070H
	DB	05cH
	DB	030H
	DB	071H
	DB	070H
	DB	060H
	DB	038H
	DB	0efH
	DB	078H
	DB	060H
	DB	030H
	DB	0ffH
	DB	078H
	DB	05cH
	DB	030H
	DB	0ffH
	DB	070H
	DB	05cH
	DB	038H
	DB	0ffH
	DB	078H
	DB	060H
	DB	038H
	DB	0ffH
	DB	070H
	DB	05cH
	DB	030H
	DB	0ffH
	DB	078H
	DB	05cH
	DB	038H
	DB	0ffH
	DB	078H
	DB	060H
	DB	038H
	DB	0ffH
	DB	070H
	DB	060H
	DB	030H
	DB	0ffH
	DB	078H
	DB	05cH
	DB	038H
	DB	0ffH
	DB	078H
	DB	060H
	DB	038H
	DB	0ffH
	DB	070H
	DB	05cH
	DB	030H
	DB	0ffH
	DB	078H
	DB	060H
	DB	038H
	DB	0ffH
	DB	070H
	DB	05cH
	DB	030H
	DB	0ffH
	DB	078H
	DB	060H
	DB	038H
	DB	0ffH
	DB	070H
	DB	05cH
	DB	030H
	DB	0ffH
	DB	078H
	DB	060H
	DB	038H
	DB	0ffH
	DB	070H
	DB	05cH
	DB	030H
	DB	0ffH
	DB	078H
	DB	060H
	DB	038H
	DB	0ffH
	DB	070H
	DB	05cH
	DB	030H
	DB	0ffH
	DB	078H
	DB	060H
	DB	038H
	DB	0ffH
	DB	070H
	DB	05cH
	DB	038H
	DB	0ffH
	DB	078H
	DB	060H
	DB	030H
	DB	0ffH
	DB	070H
	DB	05cH
	DB	038H
	DB	0ffH
	DB	078H
	DB	060H
	DB	038H
	DB	0ffH
	DB	070H
	DB	05cH
	DB	030H
	DB	0ffH
	DB	078H
	DB	060H
	DB	038H
	DB	0ffH
	DB	070H
	DB	05cH
	DB	038H
	DB	0ffH
	DB	078H
	DB	060H
	DB	030H
	DB	0ffH
	DB	070H
	DB	05cH
	DB	038H
	DB	0ffH
	DB	078H
	DB	060H
	DB	038H
	DB	0ffH
	DB	078H
	DB	05cH
	DB	030H
	DB	0ffH
	DB	070H
	DB	060H
	DB	038H
	DB	0ffH
	DB	078H
	DB	05cH
	DB	038H
	DB	0ffH
	DB	078H
	DB	060H
	DB	030H
	DB	0ffH
	DB	070H
	DB	05cH
	DB	038H
	DB	0ffH
	DB	078H
	DB	060H
	DB	038H
	DB	0ffH
	DB	078H
	DB	05cH
	DB	030H
	DB	0ffH
	DB	070H
	DB	060H
	DB	038H
	DB	0ffH
	DB	078H
	DB	05cH
	DB	038H
	DB	0ffH
	DB	078H
	DB	060H
	DB	030H
	DB	0ffH
	DB	070H
	DB	05cH
	DB	038H
	DB	0ffH
	DB	078H
	DB	060H
	DB	038H
	DB	0ffH
	DB	078H
	DB	060H
	DB	030H
	DB	0ffH
	DB	070H
	DB	05cH
	DB	038H
	DB	0ffH
	DB	078H
	DB	060H
	DB	038H
	DB	0ffH
	DB	078H
	DB	060H
	DB	030H
	DB	0ffH
	DB	070H
	DB	05cH
	DB	038H
	DB	0ffH
	DB	078H
	DB	060H
	DB	038H
	DB	0ffH
	DB	078H
	DB	060H
	DB	030H
	DB	0ffH
	DB	078H
	DB	05cH
	DB	030H
	DB	0ffH
	DB	078H
	DB	060H
	DB	038H
	DB	0ffH
	DB	078H
	DB	060H
	DB	030H
	DB	0ffH
	DB	078H
	DB	060H
	DB	030H
	DB	0ffH
	DB	078H
	DB	060H
	DB	038H
	DB	0ffH
	DB	078H
	DB	060H
	DB	030H
	DB	0ffH
	DB	070H
	DB	060H
	DB	030H
	DB	0ffH
	DB	078H
	DB	060H
	DB	038H
	DB	0ffH
	DB	078H
	DB	060H
	DB	038H
	DB	0ffH
	DB	078H
	DB	060H
	DB	030H
	DB	0ffH
	DB	070H
	DB	060H
	DB	038H
	DB	0ffH
	DB	078H
	DB	060H
	DB	030H
	DB	0ffH
	DB	078H
	DB	060H
	DB	038H
	DB	0ffH
	DB	078H
	DB	05cH
	DB	030H
	DB	0ffH
	DB	078H
	DB	060H
	DB	038H
	DB	0ffH
	DB	078H
	DB	060H
	DB	030H
	DB	0ffH
	DB	070H
	DB	060H
	DB	038H
	DB	0ffH
	DB	078H
	DB	05cH
	DB	030H
	DB	0ffH
	DB	078H
	DB	060H
	DB	030H
	DB	0ffH
	DB	078H
	DB	060H
	DB	038H
	DB	0ffH
	DB	070H
	DB	060H
	DB	030H
	DB	0ffH
	DB	078H
	DB	05cH
	DB	030H
	DB	0ffH
	DB	078H
	DB	060H
	DB	038H
	DB	0ffH
	DB	070H
	DB	060H
	DB	030H
	DB	0ffH
	DB	078H
	DB	05cH
	DB	030H
	DB	0ffH
	DB	078H
	DB	060H
	DB	038H
	DB	0ffH
	DB	070H
	DB	060H
	DB	038H
	DB	0ffH
	DB	078H
	DB	05cH
	DB	030H
	DB	0ffH
	DB	078H
	DB	060H
	DB	038H
	DB	0ffH
	DB	070H
	DB	060H
	DB	038H
	DB	0ffH
	DB	078H
	DB	060H
	DB	030H
	DB	0ffH
	DB	078H
	DB	060H
	DB	038H
	DB	0ffH
	DB	070H
	DB	060H
	DB	038H
	DB	0ffH
	DB	078H
	DB	060H
	DB	030H
	DB	0ffH
	DB	078H
	DB	060H
	DB	038H
	DB	0ffH
	DB	078H
	DB	05cH
	DB	038H
	DB	0ffH
	DB	070H
	DB	060H
	DB	030H
	DB	0ffH
	DB	078H
	DB	060H
	DB	038H
	DB	0ffH
	DB	078H
	DB	060H
	DB	038H
	DB	0ffH
	DB	078H
	DB	060H
	DB	030H
	DB	0ffH
	DB	070H
	DB	060H
	DB	038H
	DB	0ffH
	DB	078H
	DB	060H
	DB	038H
	DB	0ffH
	DB	078H
	DB	060H
	DB	030H
	DB	0ffH
	DB	070H
	DB	05cH
	DB	038H
	DB	0ffH
	DB	078H
	DB	060H
	DB	030H
	DB	0ffH
	DB	078H
	DB	060H
	DB	038H
	DB	0ffH
	DB	070H
	DB	05cH
	DB	030H
	DB	0ffH
	DB	070H
	DB	060H
	DB	038H
	DB	0ffH
	DB	070H
	DB	05cH
	DB	038H
	DB	0ffH
	DB	078H
	DB	060H
	DB	030H
	DB	0efH
	DB	078H
	DB	05cH
	DB	038H
	DB	06dH
	DB	00H
	DB	00H
	DB	00H
	DB	00H
	DB	00H
	DB	00H
	DB	00H
	DB	00H
	DB	00H
	DB	00H
	DB	00H
	DB	00H
	DB	00H
	DB	00H
	DB	00H
	DB	00H
	DB	00H
	DB	00H
	DB	00H
	DB	00H
	DB	00H
	DB	00H
	DB	00H
	DB	00H
	DB	00H
	DB	00H
	DB	00H
	DB	00H
	DB	00H
	DB	00H
	DB	00H
	DB	00H
	DB	00H
	DB	00H
	DB	00H
	DB	00H
	DB	070H
	DB	058H
	DB	030H
	DB	020H
	DB	070H
	DB	05cH
	DB	030H
	DB	09eH
	DB	070H
	DB	060H
	DB	038H
	DB	0ffH
	DB	078H
	DB	060H
	DB	038H
	DB	0ffH
	DB	078H
	DB	05cH
	DB	030H
	DB	0ffH
	DB	070H
	DB	060H
	DB	030H
	DB	0ffH
	DB	070H
	DB	05cH
	DB	038H
	DB	0ffH
	DB	078H
	DB	060H
	DB	030H
	DB	0ffH
	DB	070H
	DB	05cH
	DB	030H
	DB	0ffH
	DB	070H
	DB	05cH
	DB	038H
	DB	0ffH
	DB	078H
	DB	060H
	DB	030H
	DB	0ffH
	DB	070H
	DB	060H
	DB	030H
	DB	0ffH
	DB	070H
	DB	05cH
	DB	038H
	DB	0ffH
	DB	078H
	DB	060H
	DB	038H
	DB	0ffH
	DB	070H
	DB	05cH
	DB	030H
	DB	0ffH
	DB	078H
	DB	060H
	DB	038H
	DB	0ffH
	DB	070H
	DB	05cH
	DB	030H
	DB	0ffH
	DB	078H
	DB	060H
	DB	038H
	DB	0ffH
	DB	070H
	DB	05cH
	DB	030H
	DB	0ffH
	DB	078H
	DB	060H
	DB	030H
	DB	0ffH
	DB	070H
	DB	05cH
	DB	038H
	DB	0ffH
	DB	078H
	DB	060H
	DB	030H
	DB	0ffH
	DB	070H
	DB	05cH
	DB	030H
	DB	0ffH
	DB	078H
	DB	060H
	DB	038H
	DB	0ffH
	DB	070H
	DB	05cH
	DB	030H
	DB	0ffH
	DB	078H
	DB	060H
	DB	030H
	DB	0ffH
	DB	070H
	DB	05cH
	DB	038H
	DB	0ffH
	DB	078H
	DB	060H
	DB	030H
	DB	0ffH
	DB	070H
	DB	05cH
	DB	030H
	DB	0ffH
	DB	078H
	DB	060H
	DB	038H
	DB	0ffH
	DB	070H
	DB	05cH
	DB	030H
	DB	0ffH
	DB	078H
	DB	060H
	DB	038H
	DB	0ffH
	DB	070H
	DB	05cH
	DB	030H
	DB	0ffH
	DB	078H
	DB	060H
	DB	038H
	DB	0ffH
	DB	070H
	DB	05cH
	DB	030H
	DB	0ffH
	DB	070H
	DB	060H
	DB	030H
	DB	0ffH
	DB	078H
	DB	05cH
	DB	038H
	DB	0ffH
	DB	070H
	DB	060H
	DB	030H
	DB	0ffH
	DB	070H
	DB	05cH
	DB	030H
	DB	0ffH
	DB	078H
	DB	060H
	DB	038H
	DB	0ffH
	DB	070H
	DB	05cH
	DB	030H
	DB	0ffH
	DB	070H
	DB	060H
	DB	030H
	DB	0ffH
	DB	078H
	DB	05cH
	DB	038H
	DB	0ffH
	DB	070H
	DB	060H
	DB	030H
	DB	0ffH
	DB	070H
	DB	05cH
	DB	038H
	DB	0ffH
	DB	078H
	DB	060H
	DB	030H
	DB	0ffH
	DB	070H
	DB	05cH
	DB	030H
	DB	0ffH
	DB	070H
	DB	05cH
	DB	038H
	DB	0ffH
	DB	078H
	DB	060H
	DB	030H
	DB	0ffH
	DB	070H
	DB	05cH
	DB	038H
	DB	0ffH
	DB	070H
	DB	05cH
	DB	038H
	DB	0ffH
	DB	078H
	DB	060H
	DB	030H
	DB	0ffH
	DB	070H
	DB	05cH
	DB	038H
	DB	0ffH
	DB	070H
	DB	05cH
	DB	030H
	DB	0ffH
	DB	078H
	DB	05cH
	DB	038H
	DB	0ffH
	DB	070H
	DB	05cH
	DB	030H
	DB	0ffH
	DB	078H
	DB	060H
	DB	038H
	DB	0ffH
	DB	070H
	DB	05cH
	DB	030H
	DB	0ffH
	DB	078H
	DB	05cH
	DB	030H
	DB	0ffH
	DB	070H
	DB	060H
	DB	038H
	DB	0ffH
	DB	078H
	DB	05cH
	DB	030H
	DB	0ffH
	DB	070H
	DB	05cH
	DB	038H
	DB	0ffH
	DB	078H
	DB	060H
	DB	030H
	DB	0ffH
	DB	070H
	DB	060H
	DB	038H
	DB	0ffH
	DB	070H
	DB	05cH
	DB	030H
	DB	0ffH
	DB	078H
	DB	060H
	DB	038H
	DB	0ffH
	DB	078H
	DB	05cH
	DB	038H
	DB	0ffH
	DB	070H
	DB	060H
	DB	030H
	DB	0ffH
	DB	078H
	DB	060H
	DB	038H
	DB	0ffH
	DB	070H
	DB	05cH
	DB	038H
	DB	0ffH
	DB	078H
	DB	060H
	DB	030H
	DB	0ffH
	DB	078H
	DB	05cH
	DB	038H
	DB	0ffH
	DB	070H
	DB	05cH
	DB	030H
	DB	0ffH
	DB	078H
	DB	060H
	DB	038H
	DB	0ffH
	DB	078H
	DB	05cH
	DB	030H
	DB	0ffH
	DB	070H
	DB	060H
	DB	038H
	DB	0ffH
	DB	078H
	DB	05cH
	DB	030H
	DB	0ffH
	DB	078H
	DB	05cH
	DB	038H
	DB	0ffH
	DB	070H
	DB	060H
	DB	030H
	DB	0ffH
	DB	078H
	DB	05cH
	DB	038H
	DB	0ffH
	DB	070H
	DB	05cH
	DB	030H
	DB	0ffH
	DB	078H
	DB	060H
	DB	030H
	DB	0ffH
	DB	078H
	DB	05cH
	DB	038H
	DB	0ffH
	DB	070H
	DB	05cH
	DB	030H
	DB	0ffH
	DB	078H
	DB	060H
	DB	030H
	DB	0ffH
	DB	070H
	DB	060H
	DB	038H
	DB	0ffH
	DB	078H
	DB	05cH
	DB	030H
	DB	0ffH
	DB	070H
	DB	05cH
	DB	030H
	DB	0ffH
	DB	078H
	DB	05cH
	DB	038H
	DB	0ffH
	DB	070H
	DB	05cH
	DB	030H
	DB	0ffH
	DB	078H
	DB	05cH
	DB	038H
	DB	0ffH
	DB	078H
	DB	060H
	DB	030H
	DB	0ffH
	DB	070H
	DB	05cH
	DB	038H
	DB	0ffH
	DB	078H
	DB	060H
	DB	038H
	DB	0ffH
	DB	070H
	DB	05cH
	DB	030H
	DB	0ffH
	DB	070H
	DB	05cH
	DB	030H
	DB	0ffH
	DB	078H
	DB	060H
	DB	038H
	DB	0ffH
	DB	078H
	DB	05cH
	DB	030H
	DB	0ffH
	DB	070H
	DB	05cH
	DB	030H
	DB	0beH
	DB	070H
	DB	058H
	DB	030H
	DB	020H
	DB	00H
	DB	00H
	DB	00H
	DB	00H
	DB	00H
	DB	00H
	DB	00H
	DB	00H
	DB	00H
	DB	00H
	DB	00H
	DB	00H
	DB	00H
	DB	00H
	DB	00H
	DB	00H
	DB	00H
	DB	00H
	DB	00H
	DB	00H
	DB	00H
	DB	00H
	DB	00H
	DB	00H
	DB	00H
	DB	00H
	DB	00H
	DB	00H
	DB	00H
	DB	00H
	DB	00H
	DB	00H
	DB	00H
	DB	00H
	DB	00H
	DB	00H
	DB	00H
	DB	00H
	DB	00H
	DB	00H
	DB	00H
	DB	00H
	DB	00H
	DB	00H
	DB	00H
	DB	00H
	DB	00H
	DB	00H
	DB	070H
	DB	058H
	DB	030H
	DB	020H
	DB	078H
	DB	05cH
	DB	030H
	DB	071H
	DB	070H
	DB	05cH
	DB	030H
	DB	0beH
	DB	078H
	DB	060H
	DB	038H
	DB	0efH
	DB	070H
	DB	060H
	DB	038H
	DB	0ffH
	DB	078H
	DB	05cH
	DB	030H
	DB	0ffH
	DB	078H
	DB	060H
	DB	038H
	DB	0ffH
	DB	070H
	DB	05cH
	DB	038H
	DB	0ffH
	DB	078H
	DB	05cH
	DB	030H
	DB	0ffH
	DB	078H
	DB	060H
	DB	038H
	DB	0ffH
	DB	070H
	DB	05cH
	DB	030H
	DB	0ffH
	DB	078H
	DB	05cH
	DB	030H
	DB	0ffH
	DB	078H
	DB	060H
	DB	038H
	DB	0ffH
	DB	070H
	DB	05cH
	DB	030H
	DB	0ffH
	DB	078H
	DB	060H
	DB	038H
	DB	0ffH
	DB	070H
	DB	05cH
	DB	038H
	DB	0ffH
	DB	078H
	DB	060H
	DB	030H
	DB	0ffH
	DB	070H
	DB	05cH
	DB	038H
	DB	0ffH
	DB	078H
	DB	060H
	DB	038H
	DB	0ffH
	DB	070H
	DB	05cH
	DB	030H
	DB	0ffH
	DB	078H
	DB	060H
	DB	038H
	DB	0ffH
	DB	070H
	DB	05cH
	DB	038H
	DB	0ffH
	DB	078H
	DB	060H
	DB	030H
	DB	0ffH
	DB	070H
	DB	05cH
	DB	038H
	DB	0ffH
	DB	078H
	DB	060H
	DB	038H
	DB	0ffH
	DB	070H
	DB	05cH
	DB	030H
	DB	0ffH
	DB	078H
	DB	060H
	DB	038H
	DB	0ffH
	DB	070H
	DB	05cH
	DB	030H
	DB	0ffH
	DB	078H
	DB	060H
	DB	038H
	DB	0ffH
	DB	070H
	DB	05cH
	DB	030H
	DB	0ffH
	DB	078H
	DB	060H
	DB	030H
	DB	0ffH
	DB	070H
	DB	05cH
	DB	038H
	DB	0ffH
	DB	078H
	DB	060H
	DB	038H
	DB	0ffH
	DB	078H
	DB	05cH
	DB	030H
	DB	0ffH
	DB	070H
	DB	060H
	DB	038H
	DB	0ffH
	DB	078H
	DB	05cH
	DB	038H
	DB	0ffH
	DB	078H
	DB	060H
	DB	030H
	DB	0ffH
	DB	070H
	DB	05cH
	DB	038H
	DB	0ffH
	DB	078H
	DB	060H
	DB	038H
	DB	0ffH
	DB	078H
	DB	05cH
	DB	030H
	DB	0ffH
	DB	070H
	DB	060H
	DB	038H
	DB	0ffH
	DB	078H
	DB	05cH
	DB	030H
	DB	0ffH
	DB	078H
	DB	060H
	DB	038H
	DB	0ffH
	DB	070H
	DB	05cH
	DB	038H
	DB	0ffH
	DB	078H
	DB	060H
	DB	030H
	DB	0ffH
	DB	078H
	DB	060H
	DB	030H
	DB	0ffH
	DB	070H
	DB	05cH
	DB	038H
	DB	0ffH
	DB	070H
	DB	060H
	DB	030H
	DB	0ffH
	DB	078H
	DB	060H
	DB	030H
	DB	0ffH
	DB	070H
	DB	05cH
	DB	038H
	DB	0ffH
	DB	070H
	DB	05cH
	DB	038H
	DB	0ffH
	DB	078H
	DB	060H
	DB	030H
	DB	0ffH
	DB	070H
	DB	060H
	DB	038H
	DB	0ffH
	DB	070H
	DB	05cH
	DB	038H
	DB	0ffH
	DB	078H
	DB	05cH
	DB	030H
	DB	0ffH
	DB	070H
	DB	060H
	DB	038H
	DB	0ffH
	DB	070H
	DB	05cH
	DB	030H
	DB	0ffH
	DB	078H
	DB	05cH
	DB	038H
	DB	0ffH
	DB	070H
	DB	060H
	DB	030H
	DB	0ffH
	DB	078H
	DB	05cH
	DB	038H
	DB	0ffH
	DB	070H
	DB	05cH
	DB	038H
	DB	0ffH
	DB	070H
	DB	060H
	DB	030H
	DB	0ffH
	DB	078H
	DB	05cH
	DB	030H
	DB	0ffH
	DB	070H
	DB	05cH
	DB	038H
	DB	0ffH
	DB	070H
	DB	05cH
	DB	030H
	DB	0ffH
	DB	078H
	DB	060H
	DB	030H
	DB	0ffH
	DB	070H
	DB	05cH
	DB	038H
	DB	0ffH
	DB	070H
	DB	05cH
	DB	030H
	DB	0ffH
	DB	078H
	DB	060H
	DB	038H
	DB	0ffH
	DB	070H
	DB	060H
	DB	030H
	DB	0ffH
	DB	070H
	DB	05cH
	DB	038H
	DB	0ffH
	DB	078H
	DB	060H
	DB	038H
	DB	0ffH
	DB	070H
	DB	05cH
	DB	030H
	DB	0ffH
	DB	070H
	DB	060H
	DB	030H
	DB	0ffH
	DB	078H
	DB	05cH
	DB	038H
	DB	0ffH
	DB	070H
	DB	060H
	DB	030H
	DB	0ffH
	DB	070H
	DB	060H
	DB	038H
	DB	0ffH
	DB	078H
	DB	05cH
	DB	030H
	DB	0ffH
	DB	070H
	DB	05cH
	DB	038H
	DB	0ffH
	DB	070H
	DB	060H
	DB	038H
	DB	0ffH
	DB	070H
	DB	05cH
	DB	030H
	DB	0ffH
	DB	078H
	DB	05cH
	DB	038H
	DB	0ffH
	DB	070H
	DB	060H
	DB	038H
	DB	0ffH
	DB	070H
	DB	05cH
	DB	030H
	DB	0ffH
	DB	078H
	DB	060H
	DB	038H
	DB	0ffH
	DB	070H
	DB	060H
	DB	038H
	DB	0ffH
	DB	070H
	DB	05cH
	DB	030H
	DB	0ffH
	DB	078H
	DB	060H
	DB	030H
	DB	0ffH
	DB	070H
	DB	05cH
	DB	038H
	DB	0ffH
	DB	070H
	DB	05cH
	DB	030H
	DB	0ffH
	DB	078H
	DB	060H
	DB	030H
	DB	0ffH
	DB	070H
	DB	05cH
	DB	038H
	DB	0ffH
	DB	078H
	DB	060H
	DB	030H
	DB	0dfH
	DB	070H
	DB	05cH
	DB	038H
	DB	0beH
	DB	078H
	DB	05cH
	DB	038H
	DB	082H
	DB	070H
	DB	050H
	DB	030H
	DB	010H
	DB	00H
	DB	00H
	DB	00H
	DB	00H
	DB	00H
	DB	00H
	DB	00H
	DB	00H
	DB	00H
	DB	00H
	DB	00H
	DB	00H
	DB	00H
	DB	00H
	DB	00H
	DB	00H
	DB	00H
	DB	00H
	DB	00H
	DB	00H
	DB	00H
	DB	00H
	DB	00H
	DB	00H
	DB	00H
	DB	00H
	DB	00H
	DB	00H
CONST	ENDS
END
