; Listing generated by Microsoft (R) Optimizing Compiler Version 19.38.33133.0 

	TITLE	C:\STM32CubeIDE\Electrium\vroom_motorcycle\TouchGFX\build\Debug\obj\image_alternate_theme_images_widgets_gauge_medium_needles_smooth.obj
	.686P
	.XMM
	include listing.inc
	.model	flat

INCLUDELIB MSVCRTD
INCLUDELIB OLDNAMES

PUBLIC	?image_alternate_theme_images_widgets_gauge_medium_needles_smooth@@3QBEB ; image_alternate_theme_images_widgets_gauge_medium_needles_smooth
msvcjmc	SEGMENT
__BD62AED8_Config@hpp DB 01H
__98BBC371_image_alternate_theme_images_widgets_gauge_medium_needles_smooth@cpp DB 01H
msvcjmc	ENDS
CONST	SEGMENT
?image_alternate_theme_images_widgets_gauge_medium_needles_smooth@@3QBEB DB 00H ; image_alternate_theme_images_widgets_gauge_medium_needles_smooth
	DB	00H
	DB	00H
	DB	00H
	DB	00H
	DB	00H
	DB	00H
	DB	00H
	DB	00H
	DB	00H
	DB	00H
	DB	00H
	DB	00H
	DB	00H
	DB	00H
	DB	00H
	DB	00H
	DB	00H
	DB	00H
	DB	00H
	DB	038H
	DB	020H
	DB	010H
	DB	020H
	DB	038H
	DB	01cH
	DB	010H
	DB	0dfH
	DB	038H
	DB	01cH
	DB	08H
	DB	0dfH
	DB	038H
	DB	020H
	DB	08H
	DB	020H
	DB	00H
	DB	00H
	DB	00H
	DB	00H
	DB	00H
	DB	00H
	DB	00H
	DB	00H
	DB	00H
	DB	00H
	DB	00H
	DB	00H
	DB	00H
	DB	00H
	DB	00H
	DB	00H
	DB	00H
	DB	00H
	DB	00H
	DB	00H
	DB	00H
	DB	00H
	DB	00H
	DB	00H
	DB	00H
	DB	00H
	DB	00H
	DB	00H
	DB	00H
	DB	00H
	DB	00H
	DB	00H
	DB	00H
	DB	00H
	DB	00H
	DB	00H
	DB	00H
	DB	00H
	DB	00H
	DB	00H
	DB	038H
	DB	01cH
	DB	08H
	DB	06dH
	DB	038H
	DB	01cH
	DB	08H
	DB	0ffH
	DB	038H
	DB	018H
	DB	010H
	DB	0ffH
	DB	038H
	DB	018H
	DB	08H
	DB	06dH
	DB	00H
	DB	00H
	DB	00H
	DB	00H
	DB	00H
	DB	00H
	DB	00H
	DB	00H
	DB	00H
	DB	00H
	DB	00H
	DB	00H
	DB	00H
	DB	00H
	DB	00H
	DB	00H
	DB	00H
	DB	00H
	DB	00H
	DB	00H
	DB	00H
	DB	00H
	DB	00H
	DB	00H
	DB	00H
	DB	00H
	DB	00H
	DB	00H
	DB	00H
	DB	00H
	DB	00H
	DB	00H
	DB	00H
	DB	00H
	DB	00H
	DB	00H
	DB	00H
	DB	00H
	DB	00H
	DB	00H
	DB	038H
	DB	018H
	DB	010H
	DB	07dH
	DB	038H
	DB	01cH
	DB	08H
	DB	0ffH
	DB	038H
	DB	01cH
	DB	010H
	DB	0ffH
	DB	038H
	DB	018H
	DB	010H
	DB	082H
	DB	00H
	DB	00H
	DB	00H
	DB	00H
	DB	00H
	DB	00H
	DB	00H
	DB	00H
	DB	00H
	DB	00H
	DB	00H
	DB	00H
	DB	00H
	DB	00H
	DB	00H
	DB	00H
	DB	00H
	DB	00H
	DB	00H
	DB	00H
	DB	00H
	DB	00H
	DB	00H
	DB	00H
	DB	00H
	DB	00H
	DB	00H
	DB	00H
	DB	00H
	DB	00H
	DB	00H
	DB	00H
	DB	00H
	DB	00H
	DB	00H
	DB	00H
	DB	00H
	DB	00H
	DB	00H
	DB	00H
	DB	038H
	DB	01cH
	DB	08H
	DB	08eH
	DB	038H
	DB	01cH
	DB	010H
	DB	0ffH
	DB	038H
	DB	01cH
	DB	08H
	DB	0ffH
	DB	030H
	DB	01cH
	DB	08H
	DB	09eH
	DB	00H
	DB	00H
	DB	00H
	DB	00H
	DB	00H
	DB	00H
	DB	00H
	DB	00H
	DB	00H
	DB	00H
	DB	00H
	DB	00H
	DB	00H
	DB	00H
	DB	00H
	DB	00H
	DB	00H
	DB	00H
	DB	00H
	DB	00H
	DB	00H
	DB	00H
	DB	00H
	DB	00H
	DB	00H
	DB	00H
	DB	00H
	DB	00H
	DB	00H
	DB	00H
	DB	00H
	DB	00H
	DB	00H
	DB	00H
	DB	00H
	DB	00H
	DB	00H
	DB	00H
	DB	00H
	DB	00H
	DB	038H
	DB	01cH
	DB	08H
	DB	0aeH
	DB	038H
	DB	01cH
	DB	010H
	DB	0ffH
	DB	038H
	DB	018H
	DB	08H
	DB	0ffH
	DB	038H
	DB	01cH
	DB	08H
	DB	09eH
	DB	00H
	DB	00H
	DB	00H
	DB	00H
	DB	00H
	DB	00H
	DB	00H
	DB	00H
	DB	00H
	DB	00H
	DB	00H
	DB	00H
	DB	00H
	DB	00H
	DB	00H
	DB	00H
	DB	00H
	DB	00H
	DB	00H
	DB	00H
	DB	00H
	DB	00H
	DB	00H
	DB	00H
	DB	00H
	DB	00H
	DB	00H
	DB	00H
	DB	00H
	DB	00H
	DB	00H
	DB	00H
	DB	00H
	DB	00H
	DB	00H
	DB	00H
	DB	00H
	DB	00H
	DB	00H
	DB	00H
	DB	038H
	DB	01cH
	DB	010H
	DB	0beH
	DB	038H
	DB	01cH
	DB	010H
	DB	0ffH
	DB	038H
	DB	01cH
	DB	010H
	DB	0ffH
	DB	038H
	DB	01cH
	DB	010H
	DB	0beH
	DB	00H
	DB	00H
	DB	00H
	DB	00H
	DB	00H
	DB	00H
	DB	00H
	DB	00H
	DB	00H
	DB	00H
	DB	00H
	DB	00H
	DB	00H
	DB	00H
	DB	00H
	DB	00H
	DB	00H
	DB	00H
	DB	00H
	DB	00H
	DB	00H
	DB	00H
	DB	00H
	DB	00H
	DB	00H
	DB	00H
	DB	00H
	DB	00H
	DB	00H
	DB	00H
	DB	00H
	DB	00H
	DB	00H
	DB	00H
	DB	00H
	DB	00H
	DB	00H
	DB	00H
	DB	00H
	DB	00H
	DB	038H
	DB	018H
	DB	08H
	DB	0cfH
	DB	030H
	DB	01cH
	DB	08H
	DB	0ffH
	DB	038H
	DB	01cH
	DB	08H
	DB	0ffH
	DB	038H
	DB	018H
	DB	08H
	DB	0dfH
	DB	00H
	DB	00H
	DB	00H
	DB	00H
	DB	00H
	DB	00H
	DB	00H
	DB	00H
	DB	00H
	DB	00H
	DB	00H
	DB	00H
	DB	00H
	DB	00H
	DB	00H
	DB	00H
	DB	00H
	DB	00H
	DB	00H
	DB	00H
	DB	00H
	DB	00H
	DB	00H
	DB	00H
	DB	00H
	DB	00H
	DB	00H
	DB	00H
	DB	00H
	DB	00H
	DB	00H
	DB	00H
	DB	00H
	DB	00H
	DB	00H
	DB	00H
	DB	00H
	DB	00H
	DB	00H
	DB	00H
	DB	038H
	DB	01cH
	DB	010H
	DB	0efH
	DB	038H
	DB	01cH
	DB	08H
	DB	0ffH
	DB	038H
	DB	018H
	DB	010H
	DB	0ffH
	DB	030H
	DB	01cH
	DB	010H
	DB	0efH
	DB	00H
	DB	00H
	DB	00H
	DB	00H
	DB	00H
	DB	00H
	DB	00H
	DB	00H
	DB	00H
	DB	00H
	DB	00H
	DB	00H
	DB	00H
	DB	00H
	DB	00H
	DB	00H
	DB	00H
	DB	00H
	DB	00H
	DB	00H
	DB	00H
	DB	00H
	DB	00H
	DB	00H
	DB	00H
	DB	00H
	DB	00H
	DB	00H
	DB	00H
	DB	00H
	DB	00H
	DB	00H
	DB	00H
	DB	00H
	DB	00H
	DB	00H
	DB	00H
	DB	00H
	DB	00H
	DB	00H
	DB	038H
	DB	01cH
	DB	010H
	DB	0ffH
	DB	038H
	DB	01cH
	DB	08H
	DB	0ffH
	DB	038H
	DB	01cH
	DB	010H
	DB	0ffH
	DB	038H
	DB	01cH
	DB	08H
	DB	0ffH
	DB	00H
	DB	00H
	DB	00H
	DB	00H
	DB	00H
	DB	00H
	DB	00H
	DB	00H
	DB	00H
	DB	00H
	DB	00H
	DB	00H
	DB	00H
	DB	00H
	DB	00H
	DB	00H
	DB	00H
	DB	00H
	DB	00H
	DB	00H
	DB	00H
	DB	00H
	DB	00H
	DB	00H
	DB	00H
	DB	00H
	DB	00H
	DB	00H
	DB	00H
	DB	00H
	DB	00H
	DB	00H
	DB	00H
	DB	00H
	DB	00H
	DB	00H
	DB	038H
	DB	018H
	DB	010H
	DB	020H
	DB	038H
	DB	01cH
	DB	08H
	DB	0ffH
	DB	038H
	DB	018H
	DB	010H
	DB	0ffH
	DB	038H
	DB	01cH
	DB	08H
	DB	0ffH
	DB	038H
	DB	01cH
	DB	08H
	DB	0ffH
	DB	038H
	DB	018H
	DB	08H
	DB	020H
	DB	00H
	DB	00H
	DB	00H
	DB	00H
	DB	00H
	DB	00H
	DB	00H
	DB	00H
	DB	00H
	DB	00H
	DB	00H
	DB	00H
	DB	00H
	DB	00H
	DB	00H
	DB	00H
	DB	00H
	DB	00H
	DB	00H
	DB	00H
	DB	00H
	DB	00H
	DB	00H
	DB	00H
	DB	00H
	DB	00H
	DB	00H
	DB	00H
	DB	00H
	DB	00H
	DB	00H
	DB	00H
	DB	038H
	DB	020H
	DB	08H
	DB	030H
	DB	038H
	DB	01cH
	DB	010H
	DB	0ffH
	DB	038H
	DB	018H
	DB	010H
	DB	0ffH
	DB	030H
	DB	01cH
	DB	08H
	DB	0ffH
	DB	038H
	DB	01cH
	DB	010H
	DB	0ffH
	DB	030H
	DB	014H
	DB	08H
	DB	030H
	DB	00H
	DB	00H
	DB	00H
	DB	00H
	DB	00H
	DB	00H
	DB	00H
	DB	00H
	DB	00H
	DB	00H
	DB	00H
	DB	00H
	DB	00H
	DB	00H
	DB	00H
	DB	00H
	DB	00H
	DB	00H
	DB	00H
	DB	00H
	DB	00H
	DB	00H
	DB	00H
	DB	00H
	DB	00H
	DB	00H
	DB	00H
	DB	00H
	DB	00H
	DB	00H
	DB	00H
	DB	00H
	DB	038H
	DB	01cH
	DB	08H
	DB	041H
	DB	038H
	DB	01cH
	DB	010H
	DB	0ffH
	DB	038H
	DB	01cH
	DB	08H
	DB	0ffH
	DB	038H
	DB	018H
	DB	010H
	DB	0ffH
	DB	038H
	DB	01cH
	DB	010H
	DB	0ffH
	DB	030H
	DB	018H
	DB	010H
	DB	051H
	DB	00H
	DB	00H
	DB	00H
	DB	00H
	DB	00H
	DB	00H
	DB	00H
	DB	00H
	DB	00H
	DB	00H
	DB	00H
	DB	00H
	DB	00H
	DB	00H
	DB	00H
	DB	00H
	DB	00H
	DB	00H
	DB	00H
	DB	00H
	DB	00H
	DB	00H
	DB	00H
	DB	00H
	DB	00H
	DB	00H
	DB	00H
	DB	00H
	DB	00H
	DB	00H
	DB	00H
	DB	00H
	DB	030H
	DB	01cH
	DB	010H
	DB	061H
	DB	038H
	DB	01cH
	DB	08H
	DB	0ffH
	DB	038H
	DB	01cH
	DB	08H
	DB	0ffH
	DB	038H
	DB	01cH
	DB	08H
	DB	0ffH
	DB	038H
	DB	01cH
	DB	010H
	DB	0ffH
	DB	038H
	DB	01cH
	DB	08H
	DB	05dH
	DB	00H
	DB	00H
	DB	00H
	DB	00H
	DB	00H
	DB	00H
	DB	00H
	DB	00H
	DB	00H
	DB	00H
	DB	00H
	DB	00H
	DB	00H
	DB	00H
	DB	00H
	DB	00H
	DB	00H
	DB	00H
	DB	00H
	DB	00H
	DB	00H
	DB	00H
	DB	00H
	DB	00H
	DB	00H
	DB	00H
	DB	00H
	DB	00H
	DB	00H
	DB	00H
	DB	00H
	DB	00H
	DB	038H
	DB	01cH
	DB	08H
	DB	06dH
	DB	038H
	DB	018H
	DB	010H
	DB	0ffH
	DB	038H
	DB	01cH
	DB	010H
	DB	0ffH
	DB	038H
	DB	01cH
	DB	08H
	DB	0ffH
	DB	038H
	DB	018H
	DB	08H
	DB	0ffH
	DB	038H
	DB	018H
	DB	08H
	DB	071H
	DB	00H
	DB	00H
	DB	00H
	DB	00H
	DB	00H
	DB	00H
	DB	00H
	DB	00H
	DB	00H
	DB	00H
	DB	00H
	DB	00H
	DB	00H
	DB	00H
	DB	00H
	DB	00H
	DB	00H
	DB	00H
	DB	00H
	DB	00H
	DB	00H
	DB	00H
	DB	00H
	DB	00H
	DB	00H
	DB	00H
	DB	00H
	DB	00H
	DB	00H
	DB	00H
	DB	00H
	DB	00H
	DB	038H
	DB	018H
	DB	08H
	DB	07dH
	DB	038H
	DB	01cH
	DB	010H
	DB	0ffH
	DB	038H
	DB	01cH
	DB	010H
	DB	0ffH
	DB	038H
	DB	018H
	DB	010H
	DB	0ffH
	DB	038H
	DB	01cH
	DB	010H
	DB	0ffH
	DB	030H
	DB	018H
	DB	010H
	DB	07dH
	DB	00H
	DB	00H
	DB	00H
	DB	00H
	DB	00H
	DB	00H
	DB	00H
	DB	00H
	DB	00H
	DB	00H
	DB	00H
	DB	00H
	DB	00H
	DB	00H
	DB	00H
	DB	00H
	DB	00H
	DB	00H
	DB	00H
	DB	00H
	DB	00H
	DB	00H
	DB	00H
	DB	00H
	DB	00H
	DB	00H
	DB	00H
	DB	00H
	DB	00H
	DB	00H
	DB	00H
	DB	00H
	DB	038H
	DB	01cH
	DB	010H
	DB	09eH
	DB	038H
	DB	01cH
	DB	08H
	DB	0ffH
	DB	030H
	DB	01cH
	DB	08H
	DB	0ffH
	DB	038H
	DB	01cH
	DB	08H
	DB	0ffH
	DB	038H
	DB	01cH
	DB	08H
	DB	0ffH
	DB	038H
	DB	01cH
	DB	08H
	DB	09eH
	DB	00H
	DB	00H
	DB	00H
	DB	00H
	DB	00H
	DB	00H
	DB	00H
	DB	00H
	DB	00H
	DB	00H
	DB	00H
	DB	00H
	DB	00H
	DB	00H
	DB	00H
	DB	00H
	DB	00H
	DB	00H
	DB	00H
	DB	00H
	DB	00H
	DB	00H
	DB	00H
	DB	00H
	DB	00H
	DB	00H
	DB	00H
	DB	00H
	DB	00H
	DB	00H
	DB	00H
	DB	00H
	DB	038H
	DB	01cH
	DB	010H
	DB	0aeH
	DB	038H
	DB	018H
	DB	08H
	DB	0ffH
	DB	038H
	DB	01cH
	DB	010H
	DB	0ffH
	DB	038H
	DB	01cH
	DB	010H
	DB	0ffH
	DB	038H
	DB	018H
	DB	08H
	DB	0ffH
	DB	038H
	DB	018H
	DB	010H
	DB	0aeH
	DB	00H
	DB	00H
	DB	00H
	DB	00H
	DB	00H
	DB	00H
	DB	00H
	DB	00H
	DB	00H
	DB	00H
	DB	00H
	DB	00H
	DB	00H
	DB	00H
	DB	00H
	DB	00H
	DB	00H
	DB	00H
	DB	00H
	DB	00H
	DB	00H
	DB	00H
	DB	00H
	DB	00H
	DB	00H
	DB	00H
	DB	00H
	DB	00H
	DB	00H
	DB	00H
	DB	00H
	DB	00H
	DB	038H
	DB	01cH
	DB	08H
	DB	0beH
	DB	038H
	DB	01cH
	DB	010H
	DB	0ffH
	DB	038H
	DB	018H
	DB	08H
	DB	0ffH
	DB	038H
	DB	01cH
	DB	010H
	DB	0ffH
	DB	030H
	DB	01cH
	DB	010H
	DB	0ffH
	DB	038H
	DB	018H
	DB	08H
	DB	0cfH
	DB	00H
	DB	00H
	DB	00H
	DB	00H
	DB	00H
	DB	00H
	DB	00H
	DB	00H
	DB	00H
	DB	00H
	DB	00H
	DB	00H
	DB	00H
	DB	00H
	DB	00H
	DB	00H
	DB	00H
	DB	00H
	DB	00H
	DB	00H
	DB	00H
	DB	00H
	DB	00H
	DB	00H
	DB	00H
	DB	00H
	DB	00H
	DB	00H
	DB	00H
	DB	00H
	DB	00H
	DB	00H
	DB	038H
	DB	018H
	DB	010H
	DB	0dfH
	DB	038H
	DB	01cH
	DB	08H
	DB	0ffH
	DB	038H
	DB	01cH
	DB	08H
	DB	0ffH
	DB	038H
	DB	01cH
	DB	010H
	DB	0ffH
	DB	038H
	DB	01cH
	DB	08H
	DB	0ffH
	DB	038H
	DB	01cH
	DB	08H
	DB	0dfH
	DB	00H
	DB	00H
	DB	00H
	DB	00H
	DB	00H
	DB	00H
	DB	00H
	DB	00H
	DB	00H
	DB	00H
	DB	00H
	DB	00H
	DB	00H
	DB	00H
	DB	00H
	DB	00H
	DB	00H
	DB	00H
	DB	00H
	DB	00H
	DB	00H
	DB	00H
	DB	00H
	DB	00H
	DB	00H
	DB	00H
	DB	00H
	DB	00H
	DB	00H
	DB	00H
	DB	00H
	DB	00H
	DB	030H
	DB	01cH
	DB	010H
	DB	0efH
	DB	038H
	DB	01cH
	DB	08H
	DB	0ffH
	DB	038H
	DB	01cH
	DB	010H
	DB	0ffH
	DB	030H
	DB	018H
	DB	010H
	DB	0ffH
	DB	038H
	DB	01cH
	DB	08H
	DB	0ffH
	DB	038H
	DB	01cH
	DB	010H
	DB	0efH
	DB	00H
	DB	00H
	DB	00H
	DB	00H
	DB	00H
	DB	00H
	DB	00H
	DB	00H
	DB	00H
	DB	00H
	DB	00H
	DB	00H
	DB	00H
	DB	00H
	DB	00H
	DB	00H
	DB	00H
	DB	00H
	DB	00H
	DB	00H
	DB	00H
	DB	00H
	DB	00H
	DB	00H
	DB	00H
	DB	00H
	DB	00H
	DB	00H
	DB	00H
	DB	00H
	DB	00H
	DB	00H
	DB	038H
	DB	01cH
	DB	08H
	DB	0ffH
	DB	038H
	DB	01cH
	DB	010H
	DB	0ffH
	DB	038H
	DB	018H
	DB	08H
	DB	0ffH
	DB	038H
	DB	01cH
	DB	08H
	DB	0ffH
	DB	038H
	DB	01cH
	DB	010H
	DB	0ffH
	DB	038H
	DB	018H
	DB	010H
	DB	0ffH
	DB	040H
	DB	010H
	DB	010H
	DB	010H
	DB	00H
	DB	00H
	DB	00H
	DB	00H
	DB	00H
	DB	00H
	DB	00H
	DB	00H
	DB	00H
	DB	00H
	DB	00H
	DB	00H
	DB	00H
	DB	00H
	DB	00H
	DB	00H
	DB	00H
	DB	00H
	DB	00H
	DB	00H
	DB	00H
	DB	00H
	DB	00H
	DB	00H
	DB	038H
	DB	018H
	DB	010H
	DB	020H
	DB	038H
	DB	01cH
	DB	08H
	DB	0ffH
	DB	038H
	DB	018H
	DB	010H
	DB	0ffH
	DB	038H
	DB	01cH
	DB	010H
	DB	0ffH
	DB	038H
	DB	01cH
	DB	08H
	DB	0ffH
	DB	038H
	DB	01cH
	DB	08H
	DB	0ffH
	DB	030H
	DB	01cH
	DB	010H
	DB	0ffH
	DB	038H
	DB	018H
	DB	08H
	DB	020H
	DB	00H
	DB	00H
	DB	00H
	DB	00H
	DB	00H
	DB	00H
	DB	00H
	DB	00H
	DB	00H
	DB	00H
	DB	00H
	DB	00H
	DB	00H
	DB	00H
	DB	00H
	DB	00H
	DB	00H
	DB	00H
	DB	00H
	DB	00H
	DB	00H
	DB	00H
	DB	00H
	DB	00H
	DB	038H
	DB	01cH
	DB	010H
	DB	041H
	DB	038H
	DB	01cH
	DB	08H
	DB	0ffH
	DB	038H
	DB	01cH
	DB	08H
	DB	0ffH
	DB	030H
	DB	01cH
	DB	010H
	DB	0ffH
	DB	038H
	DB	018H
	DB	010H
	DB	0ffH
	DB	038H
	DB	01cH
	DB	08H
	DB	0ffH
	DB	038H
	DB	01cH
	DB	08H
	DB	0ffH
	DB	030H
	DB	014H
	DB	08H
	DB	030H
	DB	00H
	DB	00H
	DB	00H
	DB	00H
	DB	00H
	DB	00H
	DB	00H
	DB	00H
	DB	00H
	DB	00H
	DB	00H
	DB	00H
	DB	00H
	DB	00H
	DB	00H
	DB	00H
	DB	00H
	DB	00H
	DB	00H
	DB	00H
	DB	00H
	DB	00H
	DB	00H
	DB	00H
	DB	038H
	DB	01cH
	DB	08H
	DB	041H
	DB	038H
	DB	01cH
	DB	010H
	DB	0ffH
	DB	038H
	DB	01cH
	DB	08H
	DB	0ffH
	DB	038H
	DB	018H
	DB	08H
	DB	0ffH
	DB	038H
	DB	01cH
	DB	010H
	DB	0ffH
	DB	038H
	DB	01cH
	DB	010H
	DB	0ffH
	DB	038H
	DB	01cH
	DB	08H
	DB	0ffH
	DB	030H
	DB	018H
	DB	010H
	DB	051H
	DB	00H
	DB	00H
	DB	00H
	DB	00H
	DB	00H
	DB	00H
	DB	00H
	DB	00H
	DB	00H
	DB	00H
	DB	00H
	DB	00H
	DB	00H
	DB	00H
	DB	00H
	DB	00H
	DB	00H
	DB	00H
	DB	00H
	DB	00H
	DB	00H
	DB	00H
	DB	00H
	DB	00H
	DB	030H
	DB	01cH
	DB	010H
	DB	061H
	DB	038H
	DB	018H
	DB	010H
	DB	0ffH
	DB	038H
	DB	01cH
	DB	010H
	DB	0ffH
	DB	038H
	DB	01cH
	DB	08H
	DB	0ffH
	DB	038H
	DB	01cH
	DB	08H
	DB	0ffH
	DB	038H
	DB	018H
	DB	010H
	DB	0ffH
	DB	038H
	DB	01cH
	DB	010H
	DB	0ffH
	DB	038H
	DB	01cH
	DB	08H
	DB	05dH
	DB	00H
	DB	00H
	DB	00H
	DB	00H
	DB	00H
	DB	00H
	DB	00H
	DB	00H
	DB	00H
	DB	00H
	DB	00H
	DB	00H
	DB	00H
	DB	00H
	DB	00H
	DB	00H
	DB	00H
	DB	00H
	DB	00H
	DB	00H
	DB	00H
	DB	00H
	DB	00H
	DB	00H
	DB	038H
	DB	018H
	DB	08H
	DB	07dH
	DB	038H
	DB	01cH
	DB	08H
	DB	0ffH
	DB	038H
	DB	01cH
	DB	010H
	DB	0ffH
	DB	030H
	DB	01cH
	DB	010H
	DB	0ffH
	DB	038H
	DB	018H
	DB	08H
	DB	0ffH
	DB	038H
	DB	01cH
	DB	08H
	DB	0ffH
	DB	038H
	DB	01cH
	DB	010H
	DB	0ffH
	DB	038H
	DB	018H
	DB	08H
	DB	082H
	DB	00H
	DB	00H
	DB	00H
	DB	00H
	DB	00H
	DB	00H
	DB	00H
	DB	00H
	DB	00H
	DB	00H
	DB	00H
	DB	00H
	DB	00H
	DB	00H
	DB	00H
	DB	00H
	DB	00H
	DB	00H
	DB	00H
	DB	00H
	DB	00H
	DB	00H
	DB	00H
	DB	00H
	DB	038H
	DB	018H
	DB	08H
	DB	07dH
	DB	038H
	DB	01cH
	DB	010H
	DB	0ffH
	DB	038H
	DB	01cH
	DB	08H
	DB	0ffH
	DB	038H
	DB	018H
	DB	010H
	DB	0ffH
	DB	038H
	DB	01cH
	DB	010H
	DB	0ffH
	DB	038H
	DB	01cH
	DB	08H
	DB	0ffH
	DB	030H
	DB	01cH
	DB	010H
	DB	0ffH
	DB	038H
	DB	018H
	DB	010H
	DB	08eH
	DB	00H
	DB	00H
	DB	00H
	DB	00H
	DB	00H
	DB	00H
	DB	00H
	DB	00H
	DB	00H
	DB	00H
	DB	00H
	DB	00H
	DB	00H
	DB	00H
	DB	00H
	DB	00H
	DB	00H
	DB	00H
	DB	00H
	DB	00H
	DB	00H
	DB	00H
	DB	00H
	DB	00H
	DB	038H
	DB	01cH
	DB	010H
	DB	09eH
	DB	038H
	DB	01cH
	DB	08H
	DB	0ffH
	DB	038H
	DB	01cH
	DB	08H
	DB	0ffH
	DB	038H
	DB	01cH
	DB	010H
	DB	0ffH
	DB	038H
	DB	01cH
	DB	08H
	DB	0ffH
	DB	038H
	DB	018H
	DB	08H
	DB	0ffH
	DB	038H
	DB	01cH
	DB	010H
	DB	0ffH
	DB	038H
	DB	01cH
	DB	08H
	DB	09eH
	DB	00H
	DB	00H
	DB	00H
	DB	00H
	DB	00H
	DB	00H
	DB	00H
	DB	00H
	DB	00H
	DB	00H
	DB	00H
	DB	00H
	DB	00H
	DB	00H
	DB	00H
	DB	00H
	DB	00H
	DB	00H
	DB	00H
	DB	00H
	DB	00H
	DB	00H
	DB	00H
	DB	00H
	DB	038H
	DB	01cH
	DB	010H
	DB	0beH
	DB	038H
	DB	018H
	DB	08H
	DB	0ffH
	DB	030H
	DB	01cH
	DB	010H
	DB	0ffH
	DB	038H
	DB	01cH
	DB	010H
	DB	0ffH
	DB	038H
	DB	018H
	DB	08H
	DB	0ffH
	DB	038H
	DB	01cH
	DB	010H
	DB	0ffH
	DB	038H
	DB	01cH
	DB	08H
	DB	0ffH
	DB	030H
	DB	018H
	DB	08H
	DB	0aeH
	DB	00H
	DB	00H
	DB	00H
	DB	00H
	DB	00H
	DB	00H
	DB	00H
	DB	00H
	DB	00H
	DB	00H
	DB	00H
	DB	00H
	DB	00H
	DB	00H
	DB	00H
	DB	00H
	DB	00H
	DB	00H
	DB	00H
	DB	00H
	DB	00H
	DB	00H
	DB	00H
	DB	00H
	DB	038H
	DB	01cH
	DB	08H
	DB	0beH
	DB	038H
	DB	01cH
	DB	010H
	DB	0ffH
	DB	038H
	DB	018H
	DB	08H
	DB	0ffH
	DB	038H
	DB	01cH
	DB	08H
	DB	0ffH
	DB	030H
	DB	01cH
	DB	010H
	DB	0ffH
	DB	038H
	DB	01cH
	DB	010H
	DB	0ffH
	DB	038H
	DB	01cH
	DB	08H
	DB	0ffH
	DB	038H
	DB	018H
	DB	010H
	DB	0cfH
	DB	00H
	DB	00H
	DB	00H
	DB	00H
	DB	00H
	DB	00H
	DB	00H
	DB	00H
	DB	00H
	DB	00H
	DB	00H
	DB	00H
	DB	00H
	DB	00H
	DB	00H
	DB	00H
	DB	00H
	DB	00H
	DB	00H
	DB	00H
	DB	00H
	DB	00H
	DB	00H
	DB	00H
	DB	038H
	DB	018H
	DB	010H
	DB	0dfH
	DB	038H
	DB	01cH
	DB	08H
	DB	0ffH
	DB	038H
	DB	01cH
	DB	010H
	DB	0ffH
	DB	038H
	DB	018H
	DB	08H
	DB	0ffH
	DB	038H
	DB	01cH
	DB	010H
	DB	0ffH
	DB	038H
	DB	01cH
	DB	08H
	DB	0ffH
	DB	038H
	DB	018H
	DB	010H
	DB	0ffH
	DB	038H
	DB	018H
	DB	08H
	DB	0dfH
	DB	00H
	DB	00H
	DB	00H
	DB	00H
	DB	00H
	DB	00H
	DB	00H
	DB	00H
	DB	00H
	DB	00H
	DB	00H
	DB	00H
	DB	00H
	DB	00H
	DB	00H
	DB	00H
	DB	00H
	DB	00H
	DB	00H
	DB	00H
	DB	00H
	DB	00H
	DB	00H
	DB	00H
	DB	038H
	DB	01cH
	DB	08H
	DB	0ffH
	DB	030H
	DB	01cH
	DB	010H
	DB	0ffH
	DB	038H
	DB	01cH
	DB	010H
	DB	0ffH
	DB	038H
	DB	01cH
	DB	08H
	DB	0ffH
	DB	038H
	DB	018H
	DB	08H
	DB	0ffH
	DB	038H
	DB	01cH
	DB	010H
	DB	0ffH
	DB	030H
	DB	01cH
	DB	08H
	DB	0ffH
	DB	038H
	DB	01cH
	DB	010H
	DB	0ffH
	DB	00H
	DB	00H
	DB	00H
	DB	00H
	DB	00H
	DB	00H
	DB	00H
	DB	00H
	DB	00H
	DB	00H
	DB	00H
	DB	00H
	DB	00H
	DB	00H
	DB	00H
	DB	00H
	DB	00H
	DB	00H
	DB	00H
	DB	00H
	DB	040H
	DB	020H
	DB	010H
	DB	010H
	DB	038H
	DB	01cH
	DB	08H
	DB	0ffH
	DB	038H
	DB	018H
	DB	010H
	DB	0ffH
	DB	038H
	DB	01cH
	DB	08H
	DB	0ffH
	DB	038H
	DB	01cH
	DB	010H
	DB	0ffH
	DB	038H
	DB	01cH
	DB	010H
	DB	0ffH
	DB	038H
	DB	01cH
	DB	08H
	DB	0ffH
	DB	038H
	DB	01cH
	DB	010H
	DB	0ffH
	DB	038H
	DB	01cH
	DB	08H
	DB	0ffH
	DB	040H
	DB	010H
	DB	010H
	DB	010H
	DB	00H
	DB	00H
	DB	00H
	DB	00H
	DB	00H
	DB	00H
	DB	00H
	DB	00H
	DB	00H
	DB	00H
	DB	00H
	DB	00H
	DB	00H
	DB	00H
	DB	00H
	DB	00H
	DB	038H
	DB	018H
	DB	010H
	DB	020H
	DB	038H
	DB	01cH
	DB	010H
	DB	0ffH
	DB	038H
	DB	01cH
	DB	08H
	DB	0ffH
	DB	038H
	DB	018H
	DB	08H
	DB	0ffH
	DB	030H
	DB	01cH
	DB	010H
	DB	0ffH
	DB	038H
	DB	01cH
	DB	08H
	DB	0ffH
	DB	038H
	DB	018H
	DB	010H
	DB	0ffH
	DB	038H
	DB	01cH
	DB	08H
	DB	0ffH
	DB	038H
	DB	01cH
	DB	010H
	DB	0ffH
	DB	038H
	DB	018H
	DB	08H
	DB	020H
	DB	00H
	DB	00H
	DB	00H
	DB	00H
	DB	00H
	DB	00H
	DB	00H
	DB	00H
	DB	00H
	DB	00H
	DB	00H
	DB	00H
	DB	00H
	DB	00H
	DB	00H
	DB	00H
	DB	038H
	DB	01cH
	DB	08H
	DB	041H
	DB	038H
	DB	01cH
	DB	010H
	DB	0ffH
	DB	038H
	DB	01cH
	DB	010H
	DB	0ffH
	DB	038H
	DB	018H
	DB	08H
	DB	0ffH
	DB	038H
	DB	01cH
	DB	010H
	DB	0ffH
	DB	038H
	DB	01cH
	DB	08H
	DB	0ffH
	DB	030H
	DB	018H
	DB	08H
	DB	0ffH
	DB	038H
	DB	01cH
	DB	010H
	DB	0ffH
	DB	038H
	DB	01cH
	DB	08H
	DB	0ffH
	DB	030H
	DB	018H
	DB	010H
	DB	041H
	DB	00H
	DB	00H
	DB	00H
	DB	00H
	DB	00H
	DB	00H
	DB	00H
	DB	00H
	DB	00H
	DB	00H
	DB	00H
	DB	00H
	DB	00H
	DB	00H
	DB	00H
	DB	00H
	DB	038H
	DB	01cH
	DB	010H
	DB	051H
	DB	038H
	DB	01cH
	DB	08H
	DB	0ffH
	DB	030H
	DB	01cH
	DB	08H
	DB	0ffH
	DB	038H
	DB	01cH
	DB	010H
	DB	0ffH
	DB	038H
	DB	01cH
	DB	010H
	DB	0ffH
	DB	038H
	DB	01cH
	DB	08H
	DB	0ffH
	DB	038H
	DB	01cH
	DB	010H
	DB	0ffH
	DB	038H
	DB	018H
	DB	010H
	DB	0ffH
	DB	038H
	DB	01cH
	DB	08H
	DB	0ffH
	DB	038H
	DB	01cH
	DB	08H
	DB	05dH
	DB	00H
	DB	00H
	DB	00H
	DB	00H
	DB	00H
	DB	00H
	DB	00H
	DB	00H
	DB	00H
	DB	00H
	DB	00H
	DB	00H
	DB	00H
	DB	00H
	DB	00H
	DB	00H
	DB	030H
	DB	01cH
	DB	010H
	DB	061H
	DB	038H
	DB	018H
	DB	08H
	DB	0ffH
	DB	038H
	DB	01cH
	DB	010H
	DB	0ffH
	DB	038H
	DB	018H
	DB	08H
	DB	0ffH
	DB	038H
	DB	018H
	DB	08H
	DB	0ffH
	DB	038H
	DB	01cH
	DB	010H
	DB	0ffH
	DB	038H
	DB	01cH
	DB	08H
	DB	0ffH
	DB	038H
	DB	01cH
	DB	010H
	DB	0ffH
	DB	038H
	DB	018H
	DB	08H
	DB	0ffH
	DB	030H
	DB	01cH
	DB	08H
	DB	061H
	DB	00H
	DB	00H
	DB	00H
	DB	00H
	DB	00H
	DB	00H
	DB	00H
	DB	00H
	DB	00H
	DB	00H
	DB	00H
	DB	00H
	DB	00H
	DB	00H
	DB	00H
	DB	00H
	DB	038H
	DB	018H
	DB	08H
	DB	07dH
	DB	038H
	DB	01cH
	DB	010H
	DB	0ffH
	DB	038H
	DB	01cH
	DB	010H
	DB	0ffH
	DB	038H
	DB	01cH
	DB	08H
	DB	0ffH
	DB	038H
	DB	01cH
	DB	010H
	DB	0ffH
	DB	030H
	DB	018H
	DB	08H
	DB	0ffH
	DB	038H
	DB	01cH
	DB	010H
	DB	0ffH
	DB	038H
	DB	01cH
	DB	08H
	DB	0ffH
	DB	038H
	DB	01cH
	DB	010H
	DB	0ffH
	DB	038H
	DB	018H
	DB	010H
	DB	07dH
	DB	00H
	DB	00H
	DB	00H
	DB	00H
	DB	00H
	DB	00H
	DB	00H
	DB	00H
	DB	00H
	DB	00H
	DB	00H
	DB	00H
	DB	00H
	DB	00H
	DB	00H
	DB	00H
	DB	038H
	DB	01cH
	DB	08H
	DB	08eH
	DB	038H
	DB	01cH
	DB	010H
	DB	0ffH
	DB	038H
	DB	01cH
	DB	08H
	DB	0ffH
	DB	038H
	DB	01cH
	DB	010H
	DB	0ffH
	DB	038H
	DB	01cH
	DB	010H
	DB	0ffH
	DB	038H
	DB	01cH
	DB	08H
	DB	0ffH
	DB	038H
	DB	018H
	DB	010H
	DB	0ffH
	DB	038H
	DB	01cH
	DB	08H
	DB	0ffH
	DB	038H
	DB	01cH
	DB	010H
	DB	0ffH
	DB	038H
	DB	018H
	DB	08H
	DB	08eH
	DB	00H
	DB	00H
	DB	00H
	DB	00H
	DB	00H
	DB	00H
	DB	00H
	DB	00H
	DB	00H
	DB	00H
	DB	00H
	DB	00H
	DB	00H
	DB	00H
	DB	00H
	DB	00H
	DB	038H
	DB	01cH
	DB	010H
	DB	09eH
	DB	038H
	DB	018H
	DB	08H
	DB	0ffH
	DB	030H
	DB	018H
	DB	08H
	DB	0ffH
	DB	038H
	DB	01cH
	DB	010H
	DB	0ffH
	DB	038H
	DB	01cH
	DB	08H
	DB	0ffH
	DB	038H
	DB	01cH
	DB	08H
	DB	0ffH
	DB	030H
	DB	01cH
	DB	010H
	DB	0ffH
	DB	038H
	DB	018H
	DB	010H
	DB	0ffH
	DB	038H
	DB	01cH
	DB	08H
	DB	0ffH
	DB	030H
	DB	01cH
	DB	08H
	DB	09eH
	DB	00H
	DB	00H
	DB	00H
	DB	00H
	DB	00H
	DB	00H
	DB	00H
	DB	00H
	DB	00H
	DB	00H
	DB	00H
	DB	00H
	DB	00H
	DB	00H
	DB	00H
	DB	00H
	DB	038H
	DB	01cH
	DB	010H
	DB	0beH
	DB	038H
	DB	01cH
	DB	08H
	DB	0ffH
	DB	038H
	DB	01cH
	DB	010H
	DB	0ffH
	DB	038H
	DB	018H
	DB	010H
	DB	0ffH
	DB	038H
	DB	01cH
	DB	08H
	DB	0ffH
	DB	038H
	DB	018H
	DB	08H
	DB	0ffH
	DB	038H
	DB	01cH
	DB	010H
	DB	0ffH
	DB	038H
	DB	01cH
	DB	08H
	DB	0ffH
	DB	038H
	DB	01cH
	DB	010H
	DB	0ffH
	DB	038H
	DB	01cH
	DB	010H
	DB	0beH
	DB	00H
	DB	00H
	DB	00H
	DB	00H
	DB	00H
	DB	00H
	DB	00H
	DB	00H
	DB	00H
	DB	00H
	DB	00H
	DB	00H
	DB	00H
	DB	00H
	DB	00H
	DB	00H
	DB	038H
	DB	01cH
	DB	08H
	DB	0cfH
	DB	038H
	DB	01cH
	DB	010H
	DB	0ffH
	DB	038H
	DB	01cH
	DB	08H
	DB	0ffH
	DB	030H
	DB	01cH
	DB	010H
	DB	0ffH
	DB	038H
	DB	01cH
	DB	010H
	DB	0ffH
	DB	038H
	DB	01cH
	DB	08H
	DB	0ffH
	DB	038H
	DB	018H
	DB	010H
	DB	0ffH
	DB	038H
	DB	01cH
	DB	08H
	DB	0ffH
	DB	038H
	DB	018H
	DB	08H
	DB	0ffH
	DB	038H
	DB	018H
	DB	08H
	DB	0dfH
	DB	00H
	DB	00H
	DB	00H
	DB	00H
	DB	00H
	DB	00H
	DB	00H
	DB	00H
	DB	00H
	DB	00H
	DB	00H
	DB	00H
	DB	00H
	DB	00H
	DB	00H
	DB	00H
	DB	038H
	DB	018H
	DB	010H
	DB	0dfH
	DB	038H
	DB	018H
	DB	08H
	DB	0ffH
	DB	038H
	DB	01cH
	DB	08H
	DB	0ffH
	DB	038H
	DB	01cH
	DB	010H
	DB	0ffH
	DB	038H
	DB	018H
	DB	08H
	DB	0ffH
	DB	030H
	DB	01cH
	DB	010H
	DB	0ffH
	DB	038H
	DB	01cH
	DB	010H
	DB	0ffH
	DB	038H
	DB	01cH
	DB	08H
	DB	0ffH
	DB	030H
	DB	01cH
	DB	010H
	DB	0ffH
	DB	038H
	DB	018H
	DB	08H
	DB	0dfH
	DB	00H
	DB	00H
	DB	00H
	DB	00H
	DB	00H
	DB	00H
	DB	00H
	DB	00H
	DB	00H
	DB	00H
	DB	00H
	DB	00H
	DB	00H
	DB	00H
	DB	00H
	DB	00H
	DB	038H
	DB	01cH
	DB	010H
	DB	0ffH
	DB	038H
	DB	01cH
	DB	08H
	DB	0ffH
	DB	030H
	DB	01cH
	DB	010H
	DB	0ffH
	DB	038H
	DB	018H
	DB	08H
	DB	0ffH
	DB	038H
	DB	01cH
	DB	08H
	DB	0ffH
	DB	038H
	DB	01cH
	DB	010H
	DB	0ffH
	DB	038H
	DB	01cH
	DB	08H
	DB	0ffH
	DB	038H
	DB	01cH
	DB	010H
	DB	0ffH
	DB	038H
	DB	01cH
	DB	010H
	DB	0ffH
	DB	038H
	DB	01cH
	DB	010H
	DB	0ffH
	DB	00H
	DB	00H
	DB	00H
	DB	00H
	DB	00H
	DB	00H
	DB	00H
	DB	00H
	DB	00H
	DB	00H
	DB	00H
	DB	00H
	DB	040H
	DB	020H
	DB	010H
	DB	010H
	DB	038H
	DB	01cH
	DB	08H
	DB	0ffH
	DB	038H
	DB	01cH
	DB	010H
	DB	0ffH
	DB	038H
	DB	018H
	DB	010H
	DB	0ffH
	DB	038H
	DB	01cH
	DB	08H
	DB	0ffH
	DB	038H
	DB	01cH
	DB	010H
	DB	0ffH
	DB	038H
	DB	018H
	DB	08H
	DB	0ffH
	DB	038H
	DB	018H
	DB	08H
	DB	0ffH
	DB	038H
	DB	01cH
	DB	08H
	DB	0ffH
	DB	038H
	DB	018H
	DB	08H
	DB	0ffH
	DB	038H
	DB	01cH
	DB	010H
	DB	0ffH
	DB	038H
	DB	018H
	DB	08H
	DB	020H
	DB	00H
	DB	00H
	DB	00H
	DB	00H
	DB	00H
	DB	00H
	DB	00H
	DB	00H
	DB	038H
	DB	020H
	DB	08H
	DB	030H
	DB	038H
	DB	01cH
	DB	08H
	DB	0ffH
	DB	038H
	DB	018H
	DB	010H
	DB	0ffH
	DB	038H
	DB	01cH
	DB	08H
	DB	0ffH
	DB	038H
	DB	01cH
	DB	010H
	DB	0ffH
	DB	038H
	DB	01cH
	DB	010H
	DB	0ffH
	DB	030H
	DB	01cH
	DB	010H
	DB	0ffH
	DB	038H
	DB	01cH
	DB	010H
	DB	0ffH
	DB	038H
	DB	01cH
	DB	08H
	DB	0ffH
	DB	030H
	DB	01cH
	DB	010H
	DB	0ffH
	DB	038H
	DB	01cH
	DB	08H
	DB	0ffH
	DB	038H
	DB	018H
	DB	08H
	DB	020H
	DB	00H
	DB	00H
	DB	00H
	DB	00H
	DB	00H
	DB	00H
	DB	00H
	DB	00H
	DB	038H
	DB	01cH
	DB	010H
	DB	041H
	DB	038H
	DB	01cH
	DB	010H
	DB	0ffH
	DB	038H
	DB	01cH
	DB	08H
	DB	0ffH
	DB	030H
	DB	01cH
	DB	08H
	DB	0ffH
	DB	038H
	DB	018H
	DB	08H
	DB	0ffH
	DB	038H
	DB	01cH
	DB	08H
	DB	0ffH
	DB	038H
	DB	01cH
	DB	010H
	DB	0ffH
	DB	038H
	DB	018H
	DB	08H
	DB	0ffH
	DB	038H
	DB	01cH
	DB	010H
	DB	0ffH
	DB	038H
	DB	01cH
	DB	010H
	DB	0ffH
	DB	038H
	DB	01cH
	DB	08H
	DB	0ffH
	DB	030H
	DB	018H
	DB	08H
	DB	041H
	DB	00H
	DB	00H
	DB	00H
	DB	00H
	DB	00H
	DB	00H
	DB	00H
	DB	00H
	DB	038H
	DB	01cH
	DB	010H
	DB	051H
	DB	038H
	DB	01cH
	DB	08H
	DB	0ffH
	DB	038H
	DB	01cH
	DB	010H
	DB	0ffH
	DB	038H
	DB	018H
	DB	010H
	DB	0ffH
	DB	038H
	DB	01cH
	DB	08H
	DB	0ffH
	DB	038H
	DB	01cH
	DB	010H
	DB	0ffH
	DB	038H
	DB	018H
	DB	08H
	DB	0ffH
	DB	038H
	DB	01cH
	DB	08H
	DB	0ffH
	DB	038H
	DB	01cH
	DB	010H
	DB	0ffH
	DB	038H
	DB	018H
	DB	08H
	DB	0ffH
	DB	038H
	DB	01cH
	DB	010H
	DB	0ffH
	DB	038H
	DB	01cH
	DB	08H
	DB	05dH
	DB	00H
	DB	00H
	DB	00H
	DB	00H
	DB	00H
	DB	00H
	DB	00H
	DB	00H
	DB	038H
	DB	01cH
	DB	08H
	DB	06dH
	DB	038H
	DB	01cH
	DB	08H
	DB	0ffH
	DB	038H
	DB	018H
	DB	010H
	DB	0ffH
	DB	038H
	DB	01cH
	DB	010H
	DB	0ffH
	DB	038H
	DB	01cH
	DB	08H
	DB	0ffH
	DB	030H
	DB	01cH
	DB	010H
	DB	0ffH
	DB	038H
	DB	01cH
	DB	010H
	DB	0ffH
	DB	038H
	DB	01cH
	DB	08H
	DB	0ffH
	DB	030H
	DB	01cH
	DB	08H
	DB	0ffH
	DB	038H
	DB	018H
	DB	010H
	DB	0ffH
	DB	038H
	DB	01cH
	DB	010H
	DB	0ffH
	DB	038H
	DB	018H
	DB	08H
	DB	06dH
	DB	00H
	DB	00H
	DB	00H
	DB	00H
	DB	00H
	DB	00H
	DB	00H
	DB	00H
	DB	030H
	DB	018H
	DB	08H
	DB	07dH
	DB	038H
	DB	01cH
	DB	010H
	DB	0ffH
	DB	038H
	DB	01cH
	DB	08H
	DB	0ffH
	DB	030H
	DB	01cH
	DB	08H
	DB	0ffH
	DB	038H
	DB	018H
	DB	010H
	DB	0ffH
	DB	038H
	DB	01cH
	DB	08H
	DB	0ffH
	DB	038H
	DB	01cH
	DB	010H
	DB	0ffH
	DB	038H
	DB	018H
	DB	010H
	DB	0ffH
	DB	038H
	DB	01cH
	DB	08H
	DB	0ffH
	DB	038H
	DB	01cH
	DB	010H
	DB	0ffH
	DB	038H
	DB	01cH
	DB	08H
	DB	0ffH
	DB	030H
	DB	018H
	DB	010H
	DB	082H
	DB	00H
	DB	00H
	DB	00H
	DB	00H
	DB	00H
	DB	00H
	DB	00H
	DB	00H
	DB	038H
	DB	01cH
	DB	010H
	DB	08eH
	DB	038H
	DB	01cH
	DB	010H
	DB	0ffH
	DB	038H
	DB	01cH
	DB	08H
	DB	0ffH
	DB	038H
	DB	018H
	DB	010H
	DB	0ffH
	DB	038H
	DB	01cH
	DB	08H
	DB	0ffH
	DB	038H
	DB	01cH
	DB	08H
	DB	0ffH
	DB	038H
	DB	018H
	DB	010H
	DB	0ffH
	DB	038H
	DB	01cH
	DB	08H
	DB	0ffH
	DB	038H
	DB	01cH
	DB	010H
	DB	0ffH
	DB	038H
	DB	01cH
	DB	08H
	DB	0ffH
	DB	038H
	DB	018H
	DB	08H
	DB	0ffH
	DB	038H
	DB	01cH
	DB	08H
	DB	09eH
	DB	00H
	DB	00H
	DB	00H
	DB	00H
	DB	00H
	DB	00H
	DB	00H
	DB	00H
	DB	038H
	DB	01cH
	DB	08H
	DB	0aeH
	DB	038H
	DB	01cH
	DB	08H
	DB	0ffH
	DB	038H
	DB	018H
	DB	010H
	DB	0ffH
	DB	038H
	DB	01cH
	DB	010H
	DB	0ffH
	DB	038H
	DB	01cH
	DB	08H
	DB	0ffH
	DB	030H
	DB	01cH
	DB	010H
	DB	0ffH
	DB	038H
	DB	01cH
	DB	08H
	DB	0ffH
	DB	038H
	DB	018H
	DB	08H
	DB	0ffH
	DB	030H
	DB	01cH
	DB	010H
	DB	0ffH
	DB	038H
	DB	01cH
	DB	010H
	DB	0ffH
	DB	038H
	DB	01cH
	DB	010H
	DB	0ffH
	DB	030H
	DB	01cH
	DB	08H
	DB	09eH
	DB	00H
	DB	00H
	DB	00H
	DB	00H
	DB	00H
	DB	00H
	DB	00H
	DB	00H
	DB	038H
	DB	01cH
	DB	08H
	DB	0beH
	DB	038H
	DB	01cH
	DB	010H
	DB	0ffH
	DB	038H
	DB	01cH
	DB	08H
	DB	0ffH
	DB	038H
	DB	01cH
	DB	08H
	DB	0ffH
	DB	038H
	DB	018H
	DB	010H
	DB	0ffH
	DB	038H
	DB	01cH
	DB	010H
	DB	0ffH
	DB	038H
	DB	01cH
	DB	08H
	DB	0ffH
	DB	038H
	DB	01cH
	DB	010H
	DB	0ffH
	DB	038H
	DB	018H
	DB	08H
	DB	0ffH
	DB	038H
	DB	01cH
	DB	08H
	DB	0ffH
	DB	038H
	DB	01cH
	DB	010H
	DB	0ffH
	DB	038H
	DB	018H
	DB	010H
	DB	0beH
	DB	00H
	DB	00H
	DB	00H
	DB	00H
	DB	00H
	DB	00H
	DB	00H
	DB	00H
	DB	038H
	DB	018H
	DB	010H
	DB	0cfH
	DB	038H
	DB	01cH
	DB	010H
	DB	0ffH
	DB	030H
	DB	01cH
	DB	08H
	DB	0ffH
	DB	038H
	DB	018H
	DB	010H
	DB	0ffH
	DB	038H
	DB	01cH
	DB	08H
	DB	0ffH
	DB	038H
	DB	01cH
	DB	08H
	DB	0ffH
	DB	038H
	DB	018H
	DB	010H
	DB	0ffH
	DB	038H
	DB	01cH
	DB	010H
	DB	0ffH
	DB	038H
	DB	01cH
	DB	08H
	DB	0ffH
	DB	038H
	DB	018H
	DB	08H
	DB	0ffH
	DB	038H
	DB	01cH
	DB	010H
	DB	0ffH
	DB	038H
	DB	018H
	DB	08H
	DB	0dfH
	DB	00H
	DB	00H
	DB	00H
	DB	00H
	DB	00H
	DB	00H
	DB	00H
	DB	00H
	DB	038H
	DB	01cH
	DB	08H
	DB	0efH
	DB	038H
	DB	01cH
	DB	08H
	DB	0ffH
	DB	038H
	DB	018H
	DB	010H
	DB	0ffH
	DB	038H
	DB	01cH
	DB	010H
	DB	0ffH
	DB	030H
	DB	01cH
	DB	08H
	DB	0ffH
	DB	038H
	DB	01cH
	DB	010H
	DB	0ffH
	DB	038H
	DB	01cH
	DB	08H
	DB	0ffH
	DB	030H
	DB	01cH
	DB	010H
	DB	0ffH
	DB	038H
	DB	01cH
	DB	010H
	DB	0ffH
	DB	038H
	DB	01cH
	DB	08H
	DB	0ffH
	DB	030H
	DB	01cH
	DB	010H
	DB	0ffH
	DB	038H
	DB	01cH
	DB	08H
	DB	0efH
	DB	00H
	DB	00H
	DB	00H
	DB	00H
	DB	00H
	DB	00H
	DB	00H
	DB	00H
	DB	038H
	DB	01cH
	DB	010H
	DB	0ffH
	DB	038H
	DB	01cH
	DB	08H
	DB	0ffH
	DB	038H
	DB	01cH
	DB	010H
	DB	0ffH
	DB	038H
	DB	01cH
	DB	08H
	DB	0ffH
	DB	038H
	DB	018H
	DB	010H
	DB	0ffH
	DB	038H
	DB	01cH
	DB	08H
	DB	0ffH
	DB	038H
	DB	018H
	DB	08H
	DB	0ffH
	DB	038H
	DB	01cH
	DB	010H
	DB	0ffH
	DB	038H
	DB	018H
	DB	08H
	DB	0ffH
	DB	038H
	DB	01cH
	DB	010H
	DB	0ffH
	DB	038H
	DB	01cH
	DB	08H
	DB	0ffH
	DB	038H
	DB	01cH
	DB	010H
	DB	0ffH
	DB	00H
	DB	00H
	DB	00H
	DB	00H
	DB	038H
	DB	018H
	DB	010H
	DB	020H
	DB	038H
	DB	01cH
	DB	08H
	DB	0ffH
	DB	038H
	DB	018H
	DB	010H
	DB	0ffH
	DB	030H
	DB	01cH
	DB	08H
	DB	0ffH
	DB	038H
	DB	01cH
	DB	010H
	DB	0ffH
	DB	038H
	DB	01cH
	DB	08H
	DB	0ffH
	DB	038H
	DB	018H
	DB	010H
	DB	0ffH
	DB	038H
	DB	01cH
	DB	010H
	DB	0ffH
	DB	038H
	DB	01cH
	DB	08H
	DB	0ffH
	DB	038H
	DB	01cH
	DB	08H
	DB	0ffH
	DB	038H
	DB	018H
	DB	010H
	DB	0ffH
	DB	038H
	DB	01cH
	DB	08H
	DB	0ffH
	DB	038H
	DB	018H
	DB	08H
	DB	0ffH
	DB	038H
	DB	018H
	DB	08H
	DB	020H
	DB	038H
	DB	020H
	DB	08H
	DB	030H
	DB	038H
	DB	01cH
	DB	010H
	DB	0ffH
	DB	038H
	DB	018H
	DB	08H
	DB	0ffH
	DB	038H
	DB	01cH
	DB	010H
	DB	0ffH
	DB	038H
	DB	01cH
	DB	08H
	DB	0ffH
	DB	038H
	DB	01cH
	DB	010H
	DB	0ffH
	DB	030H
	DB	01cH
	DB	08H
	DB	0ffH
	DB	038H
	DB	01cH
	DB	010H
	DB	0ffH
	DB	038H
	DB	01cH
	DB	010H
	DB	0ffH
	DB	030H
	DB	01cH
	DB	08H
	DB	0ffH
	DB	038H
	DB	01cH
	DB	010H
	DB	0ffH
	DB	038H
	DB	01cH
	DB	010H
	DB	0ffH
	DB	038H
	DB	01cH
	DB	08H
	DB	0ffH
	DB	030H
	DB	014H
	DB	08H
	DB	030H
	DB	038H
	DB	01cH
	DB	010H
	DB	041H
	DB	038H
	DB	01cH
	DB	08H
	DB	0ffH
	DB	038H
	DB	01cH
	DB	010H
	DB	0ffH
	DB	038H
	DB	018H
	DB	08H
	DB	0ffH
	DB	038H
	DB	01cH
	DB	010H
	DB	0ffH
	DB	038H
	DB	018H
	DB	08H
	DB	0ffH
	DB	038H
	DB	01cH
	DB	08H
	DB	0ffH
	DB	038H
	DB	018H
	DB	010H
	DB	0ffH
	DB	038H
	DB	018H
	DB	08H
	DB	0ffH
	DB	038H
	DB	01cH
	DB	08H
	DB	0ffH
	DB	038H
	DB	018H
	DB	010H
	DB	0ffH
	DB	038H
	DB	01cH
	DB	010H
	DB	0ffH
	DB	038H
	DB	01cH
	DB	010H
	DB	0ffH
	DB	030H
	DB	018H
	DB	010H
	DB	04dH
	DB	030H
	DB	01cH
	DB	010H
	DB	061H
	DB	038H
	DB	01cH
	DB	08H
	DB	0ffH
	DB	038H
	DB	01cH
	DB	08H
	DB	0ffH
	DB	030H
	DB	01cH
	DB	010H
	DB	0ffH
	DB	038H
	DB	01cH
	DB	010H
	DB	0ffH
	DB	038H
	DB	01cH
	DB	08H
	DB	0ffH
	DB	038H
	DB	01cH
	DB	010H
	DB	0ffH
	DB	038H
	DB	01cH
	DB	010H
	DB	0ffH
	DB	030H
	DB	01cH
	DB	08H
	DB	0ffH
	DB	038H
	DB	01cH
	DB	08H
	DB	0ffH
	DB	038H
	DB	01cH
	DB	010H
	DB	0ffH
	DB	038H
	DB	018H
	DB	08H
	DB	0ffH
	DB	038H
	DB	01cH
	DB	08H
	DB	0ffH
	DB	038H
	DB	01cH
	DB	08H
	DB	061H
	DB	038H
	DB	01cH
	DB	08H
	DB	06dH
	DB	038H
	DB	018H
	DB	010H
	DB	0ffH
	DB	038H
	DB	01cH
	DB	08H
	DB	0ffH
	DB	038H
	DB	01cH
	DB	010H
	DB	0ffH
	DB	038H
	DB	018H
	DB	08H
	DB	0ffH
	DB	038H
	DB	01cH
	DB	08H
	DB	0ffH
	DB	030H
	DB	01cH
	DB	010H
	DB	0ffH
	DB	038H
	DB	018H
	DB	08H
	DB	0ffH
	DB	038H
	DB	01cH
	DB	010H
	DB	0ffH
	DB	038H
	DB	01cH
	DB	010H
	DB	0ffH
	DB	038H
	DB	01cH
	DB	08H
	DB	0ffH
	DB	030H
	DB	01cH
	DB	010H
	DB	0ffH
	DB	038H
	DB	01cH
	DB	08H
	DB	0ffH
	DB	038H
	DB	018H
	DB	08H
	DB	06dH
	DB	038H
	DB	018H
	DB	08H
	DB	07dH
	DB	038H
	DB	01cH
	DB	010H
	DB	0ffH
	DB	038H
	DB	01cH
	DB	010H
	DB	0ffH
	DB	038H
	DB	018H
	DB	08H
	DB	0ffH
	DB	038H
	DB	01cH
	DB	010H
	DB	0ffH
	DB	038H
	DB	01cH
	DB	010H
	DB	0ffH
	DB	038H
	DB	018H
	DB	08H
	DB	0ffH
	DB	038H
	DB	01cH
	DB	08H
	DB	0ffH
	DB	038H
	DB	01cH
	DB	010H
	DB	0ffH
	DB	038H
	DB	018H
	DB	08H
	DB	0ffH
	DB	038H
	DB	018H
	DB	010H
	DB	0ffH
	DB	038H
	DB	01cH
	DB	010H
	DB	0ffH
	DB	038H
	DB	01cH
	DB	010H
	DB	0ffH
	DB	030H
	DB	018H
	DB	010H
	DB	07dH
	DB	038H
	DB	01cH
	DB	010H
	DB	09eH
	DB	038H
	DB	01cH
	DB	08H
	DB	0ffH
	DB	038H
	DB	01cH
	DB	08H
	DB	0ffH
	DB	030H
	DB	01cH
	DB	010H
	DB	0ffH
	DB	038H
	DB	01cH
	DB	08H
	DB	0ffH
	DB	038H
	DB	01cH
	DB	010H
	DB	0ffH
	DB	038H
	DB	018H
	DB	08H
	DB	0ffH
	DB	038H
	DB	01cH
	DB	010H
	DB	0ffH
	DB	030H
	DB	01cH
	DB	08H
	DB	0ffH
	DB	038H
	DB	01cH
	DB	08H
	DB	0ffH
	DB	038H
	DB	01cH
	DB	08H
	DB	0ffH
	DB	038H
	DB	01cH
	DB	08H
	DB	0ffH
	DB	038H
	DB	018H
	DB	08H
	DB	0ffH
	DB	038H
	DB	01cH
	DB	08H
	DB	09eH
	DB	038H
	DB	01cH
	DB	08H
	DB	0aeH
	DB	038H
	DB	018H
	DB	010H
	DB	0ffH
	DB	038H
	DB	01cH
	DB	010H
	DB	0ffH
	DB	038H
	DB	018H
	DB	08H
	DB	0ffH
	DB	038H
	DB	01cH
	DB	08H
	DB	0ffH
	DB	030H
	DB	01cH
	DB	010H
	DB	0efH
	DB	038H
	DB	01cH
	DB	010H
	DB	0cfH
	DB	038H
	DB	01cH
	DB	08H
	DB	0beH
	DB	038H
	DB	018H
	DB	010H
	DB	0ffH
	DB	038H
	DB	01cH
	DB	010H
	DB	0ffH
	DB	038H
	DB	01cH
	DB	010H
	DB	0ffH
	DB	030H
	DB	01cH
	DB	010H
	DB	0ffH
	DB	038H
	DB	01cH
	DB	08H
	DB	0ffH
	DB	038H
	DB	018H
	DB	010H
	DB	0aeH
	DB	038H
	DB	01cH
	DB	08H
	DB	0beH
	DB	038H
	DB	01cH
	DB	010H
	DB	0ffH
	DB	038H
	DB	01cH
	DB	010H
	DB	0ffH
	DB	038H
	DB	018H
	DB	08H
	DB	0ffH
	DB	038H
	DB	018H
	DB	010H
	DB	0cfH
	DB	040H
	DB	010H
	DB	010H
	DB	010H
	DB	00H
	DB	00H
	DB	00H
	DB	00H
	DB	00H
	DB	00H
	DB	00H
	DB	00H
	DB	038H
	DB	018H
	DB	010H
	DB	020H
	DB	038H
	DB	018H
	DB	08H
	DB	0beH
	DB	038H
	DB	01cH
	DB	010H
	DB	0ffH
	DB	038H
	DB	01cH
	DB	08H
	DB	0ffH
	DB	038H
	DB	01cH
	DB	010H
	DB	0ffH
	DB	038H
	DB	018H
	DB	08H
	DB	0cfH
	DB	038H
	DB	018H
	DB	010H
	DB	0dfH
	DB	038H
	DB	01cH
	DB	08H
	DB	0ffH
	DB	030H
	DB	01cH
	DB	08H
	DB	0ffH
	DB	038H
	DB	018H
	DB	08H
	DB	0dfH
	DB	040H
	DB	010H
	DB	010H
	DB	010H
	DB	00H
	DB	00H
	DB	00H
	DB	00H
	DB	00H
	DB	00H
	DB	00H
	DB	00H
	DB	00H
	DB	00H
	DB	00H
	DB	00H
	DB	00H
	DB	00H
	DB	00H
	DB	00H
	DB	040H
	DB	020H
	DB	010H
	DB	010H
	DB	030H
	DB	01cH
	DB	08H
	DB	0efH
	DB	038H
	DB	018H
	DB	010H
	DB	0ffH
	DB	038H
	DB	01cH
	DB	08H
	DB	0ffH
	DB	038H
	DB	018H
	DB	08H
	DB	0dfH
	DB	038H
	DB	01cH
	DB	08H
	DB	0efH
	DB	038H
	DB	01cH
	DB	010H
	DB	0ffH
	DB	038H
	DB	01cH
	DB	010H
	DB	0ffH
	DB	030H
	DB	018H
	DB	08H
	DB	09eH
	DB	00H
	DB	00H
	DB	00H
	DB	00H
	DB	00H
	DB	00H
	DB	00H
	DB	00H
	DB	00H
	DB	00H
	DB	00H
	DB	00H
	DB	00H
	DB	00H
	DB	00H
	DB	00H
	DB	00H
	DB	00H
	DB	00H
	DB	00H
	DB	00H
	DB	00H
	DB	00H
	DB	00H
	DB	038H
	DB	01cH
	DB	010H
	DB	08eH
	DB	038H
	DB	01cH
	DB	08H
	DB	0ffH
	DB	038H
	DB	01cH
	DB	010H
	DB	0ffH
	DB	030H
	DB	01cH
	DB	010H
	DB	0efH
	DB	038H
	DB	01cH
	DB	08H
	DB	0ffH
	DB	038H
	DB	01cH
	DB	010H
	DB	0ffH
	DB	038H
	DB	01cH
	DB	010H
	DB	0ffH
	DB	038H
	DB	018H
	DB	08H
	DB	082H
	DB	00H
	DB	00H
	DB	00H
	DB	00H
	DB	00H
	DB	00H
	DB	00H
	DB	00H
	DB	00H
	DB	00H
	DB	00H
	DB	00H
	DB	00H
	DB	00H
	DB	00H
	DB	00H
	DB	00H
	DB	00H
	DB	00H
	DB	00H
	DB	00H
	DB	00H
	DB	00H
	DB	00H
	DB	038H
	DB	018H
	DB	08H
	DB	082H
	DB	038H
	DB	01cH
	DB	010H
	DB	0ffH
	DB	038H
	DB	01cH
	DB	08H
	DB	0ffH
	DB	038H
	DB	01cH
	DB	08H
	DB	0ffH
	DB	038H
	DB	018H
	DB	010H
	DB	0dfH
	DB	038H
	DB	01cH
	DB	08H
	DB	0ffH
	DB	038H
	DB	01cH
	DB	08H
	DB	0ffH
	DB	038H
	DB	01cH
	DB	010H
	DB	0beH
	DB	00H
	DB	00H
	DB	00H
	DB	00H
	DB	00H
	DB	00H
	DB	00H
	DB	00H
	DB	00H
	DB	00H
	DB	00H
	DB	00H
	DB	00H
	DB	00H
	DB	00H
	DB	00H
	DB	00H
	DB	00H
	DB	00H
	DB	00H
	DB	00H
	DB	00H
	DB	00H
	DB	00H
	DB	038H
	DB	01cH
	DB	010H
	DB	0beH
	DB	038H
	DB	018H
	DB	08H
	DB	0ffH
	DB	038H
	DB	01cH
	DB	010H
	DB	0ffH
	DB	038H
	DB	01cH
	DB	010H
	DB	0efH
	DB	038H
	DB	01cH
	DB	010H
	DB	09eH
	DB	038H
	DB	018H
	DB	08H
	DB	0ffH
	DB	030H
	DB	01cH
	DB	010H
	DB	0ffH
	DB	038H
	DB	01cH
	DB	010H
	DB	0ffH
	DB	038H
	DB	018H
	DB	08H
	DB	071H
	DB	00H
	DB	00H
	DB	00H
	DB	00H
	DB	00H
	DB	00H
	DB	00H
	DB	00H
	DB	00H
	DB	00H
	DB	00H
	DB	00H
	DB	00H
	DB	00H
	DB	00H
	DB	00H
	DB	038H
	DB	01cH
	DB	08H
	DB	071H
	DB	030H
	DB	01cH
	DB	010H
	DB	0ffH
	DB	038H
	DB	01cH
	DB	08H
	DB	0ffH
	DB	038H
	DB	018H
	DB	08H
	DB	0ffH
	DB	030H
	DB	018H
	DB	010H
	DB	0aeH
	DB	038H
	DB	01cH
	DB	08H
	DB	041H
	DB	038H
	DB	01cH
	DB	010H
	DB	0ffH
	DB	038H
	DB	01cH
	DB	08H
	DB	0ffH
	DB	038H
	DB	01cH
	DB	08H
	DB	0ffH
	DB	038H
	DB	01cH
	DB	010H
	DB	0ffH
	DB	030H
	DB	01cH
	DB	08H
	DB	09eH
	DB	038H
	DB	018H
	DB	010H
	DB	051H
	DB	030H
	DB	01cH
	DB	010H
	DB	061H
	DB	038H
	DB	01cH
	DB	010H
	DB	09eH
	DB	038H
	DB	01cH
	DB	08H
	DB	0ffH
	DB	038H
	DB	01cH
	DB	010H
	DB	0ffH
	DB	038H
	DB	01cH
	DB	010H
	DB	0ffH
	DB	038H
	DB	01cH
	DB	08H
	DB	0ffH
	DB	030H
	DB	018H
	DB	010H
	DB	051H
	DB	00H
	DB	00H
	DB	00H
	DB	00H
	DB	038H
	DB	01cH
	DB	010H
	DB	08eH
	DB	038H
	DB	018H
	DB	08H
	DB	0ffH
	DB	038H
	DB	01cH
	DB	010H
	DB	0ffH
	DB	038H
	DB	01cH
	DB	08H
	DB	0ffH
	DB	038H
	DB	018H
	DB	010H
	DB	0ffH
	DB	038H
	DB	01cH
	DB	08H
	DB	0ffH
	DB	038H
	DB	01cH
	DB	08H
	DB	0ffH
	DB	038H
	DB	018H
	DB	08H
	DB	0ffH
	DB	038H
	DB	01cH
	DB	010H
	DB	0ffH
	DB	038H
	DB	018H
	DB	08H
	DB	0ffH
	DB	038H
	DB	01cH
	DB	08H
	DB	0ffH
	DB	038H
	DB	018H
	DB	010H
	DB	08eH
	DB	00H
	DB	00H
	DB	00H
	DB	00H
	DB	00H
	DB	00H
	DB	00H
	DB	00H
	DB	00H
	DB	00H
	DB	00H
	DB	00H
	DB	038H
	DB	01cH
	DB	010H
	DB	08eH
	DB	038H
	DB	018H
	DB	08H
	DB	0ffH
	DB	038H
	DB	01cH
	DB	010H
	DB	0ffH
	DB	038H
	DB	01cH
	DB	08H
	DB	0ffH
	DB	038H
	DB	01cH
	DB	010H
	DB	0ffH
	DB	038H
	DB	01cH
	DB	010H
	DB	0ffH
	DB	038H
	DB	01cH
	DB	08H
	DB	0ffH
	DB	038H
	DB	018H
	DB	010H
	DB	0ffH
	DB	030H
	DB	01cH
	DB	08H
	DB	0ffH
	DB	038H
	DB	018H
	DB	010H
	DB	09eH
	DB	00H
	DB	00H
	DB	00H
	DB	00H
	DB	00H
	DB	00H
	DB	00H
	DB	00H
	DB	00H
	DB	00H
	DB	00H
	DB	00H
	DB	00H
	DB	00H
	DB	00H
	DB	00H
	DB	00H
	DB	00H
	DB	00H
	DB	00H
	DB	030H
	DB	01cH
	DB	010H
	DB	061H
	DB	038H
	DB	01cH
	DB	08H
	DB	0beH
	DB	038H
	DB	018H
	DB	08H
	DB	0ffH
	DB	030H
	DB	01cH
	DB	010H
	DB	0ffH
	DB	038H
	DB	01cH
	DB	010H
	DB	0ffH
	DB	038H
	DB	01cH
	DB	08H
	DB	0ffH
	DB	038H
	DB	01cH
	DB	010H
	DB	0beH
	DB	030H
	DB	018H
	DB	010H
	DB	041H
	DB	00H
	DB	00H
	DB	00H
	DB	00H
	DB	00H
	DB	00H
	DB	00H
	DB	00H
	DB	00H
	DB	00H
	DB	00H
	DB	00H
	DB	00H
	DB	00H
	DB	00H
	DB	00H
	DB	00H
	DB	00H
	DB	00H
	DB	00H
	DB	00H
	DB	00H
	DB	00H
	DB	00H
	DB	00H
	DB	00H
	DB	00H
	DB	00H
	DB	00H
	DB	00H
	DB	00H
	DB	00H
	DB	040H
	DB	010H
	DB	010H
	DB	010H
	DB	030H
	DB	018H
	DB	08H
	DB	030H
	DB	038H
	DB	018H
	DB	08H
	DB	020H
	DB	040H
	DB	010H
	DB	010H
	DB	010H
	DB	00H
	DB	00H
	DB	00H
	DB	00H
	DB	00H
	DB	00H
	DB	00H
	DB	00H
	DB	00H
	DB	00H
	DB	00H
	DB	00H
	DB	00H
	DB	00H
	DB	00H
	DB	00H
	DB	00H
	DB	00H
	DB	00H
	DB	00H
CONST	ENDS
END
